Certificate:
    Data:
        Version: 1 (0x0)
        Serial Number: 1 (0x1)
        Signature Algorithm: md5WithRSAEncryption
        Issuer: O=fusioninventory.org, OU=test certification authority, CN=test_ca/emailAddress=test@fusioninventory.org
        Validity
            Not Before: Jul 29 20:21:23 2010 GMT
            Not After : Jul 28 20:21:23 2012 GMT
        Subject: O=fusioninventory.org, OU=trusted test certificate, CN=localhost/emailAddress=test@fusioninventory.org
        Subject Public Key Info:
            Public Key Algorithm: rsaEncryption
                Public-Key: (2048 bit)
                Modulus:
                    00:b6:21:74:de:3d:8c:65:2a:8e:32:54:ca:6a:ab:
                    f7:8c:2b:01:4d:b0:9a:39:1c:85:bd:26:5b:67:c4:
                    b8:b0:26:73:59:e2:f0:4a:a1:0d:99:32:d0:54:18:
                    ae:ae:f2:8e:42:ef:71:1a:3f:f9:1e:df:7f:81:4e:
                    7c:a3:53:e8:6d:b2:82:b0:76:d0:ea:f7:83:42:6a:
                    66:85:a3:98:69:b0:07:ea:38:b5:5d:62:9d:6f:b3:
                    a1:64:39:c4:a3:94:c3:cb:fd:a7:d1:4a:01:ce:99:
                    b6:dd:83:ed:29:48:96:63:09:9b:96:86:d6:6c:fa:
                    35:82:19:65:42:be:16:c0:65:ef:50:22:25:ad:2a:
                    9a:a3:21:e4:76:42:28:bb:7a:9b:4f:7d:11:78:5a:
                    a6:04:fc:33:03:30:e9:6a:ae:f0:8c:d5:67:43:17:
                    07:06:43:d6:bc:f9:61:b3:68:a5:1c:04:c6:a7:93:
                    23:7b:fe:15:35:97:3c:60:0b:78:22:54:a6:3d:4c:
                    9d:52:3b:33:23:ad:c1:a7:08:24:0b:e5:5d:9c:cb:
                    39:18:68:b3:80:61:76:e3:6f:81:c8:0e:fa:b9:33:
                    36:56:a7:e8:43:10:a8:03:91:55:57:f2:73:ff:b2:
                    ac:85:bc:0d:af:9e:fd:a4:fe:40:00:e8:9b:7f:d0:
                    c4:53
                Exponent: 65537 (0x10001)
    Signature Algorithm: md5WithRSAEncryption
        d0:91:39:7a:e6:d8:71:4c:ef:fc:a5:f9:bd:3d:e8:e7:3b:59:
        83:ec:26:0a:67:ee:4a:7b:ca:0c:41:ed:a6:98:14:4a:06:09:
        f7:1c:76:e7:68:72:7e:10:e0:4e:f9:98:07:f1:10:86:2b:6c:
        8d:53:c5:82:f0:f5:02:0b:a8:8d:44:b9:8d:0b:f7:7e:4e:11:
        dd:e6:2e:a0:37:e1:b9:16:1c:25:f5:29:52:31:8b:38:e2:89:
        db:49:89:2c:f0:35:a9:06:d7:b7:e5:70:9f:fa:27:a7:b2:ec:
        3c:b8:bc:33:d8:f6:f3:7e:e9:80:73:e2:5c:99:a0:a5:ce:2e:
        08:9c:2d:96:d8:2d:c9:38:4b:ed:76:7a:fa:fc:2f:ac:32:62:
        ba:16:e5:36:3a:ea:8b:22:1d:8c:fd:18:2c:c9:b2:83:91:5b:
        61:9e:8e:11:a2:ab:ad:09:99:1e:00:56:37:d6:d3:e9:f3:97:
        d2:2a:65:41:a4:44:db:1b:e2:ae:51:69:f0:38:f9:29:4f:b0:
        57:9b:60:3a:b1:aa:8d:8c:31:11:d9:64:12:8a:c0:ab:c4:5a:
        02:08:3c:ef:2d:f2:14:67:ef:97:9a:d7:85:df:18:a1:47:15:
        cb:9c:f8:2b:1a:d9:c0:f5:b2:d1:58:66:a0:ef:df:44:6c:d7:
        ce:a6:59:bf
-----BEGIN CERTIFICATE-----
MIIDczCCAlsCAQEwDQYJKoZIhvcNAQEEBQAwgYAxHDAaBgNVBAoTE2Z1c2lvbmlu
dmVudG9yeS5vcmcxJTAjBgNVBAsTHHRlc3QgY2VydGlmaWNhdGlvbiBhdXRob3Jp
dHkxEDAOBgNVBAMUB3Rlc3RfY2ExJzAlBgkqhkiG9w0BCQEWGHRlc3RAZnVzaW9u
aW52ZW50b3J5Lm9yZzAeFw0xMDA3MjkyMDIxMjNaFw0xMjA3MjgyMDIxMjNaMH4x
HDAaBgNVBAoTE2Z1c2lvbmludmVudG9yeS5vcmcxITAfBgNVBAsTGHRydXN0ZWQg
dGVzdCBjZXJ0aWZpY2F0ZTESMBAGA1UEAxMJbG9jYWxob3N0MScwJQYJKoZIhvcN
AQkBFhh0ZXN0QGZ1c2lvbmludmVudG9yeS5vcmcwggEiMA0GCSqGSIb3DQEBAQUA
A4IBDwAwggEKAoIBAQC2IXTePYxlKo4yVMpqq/eMKwFNsJo5HIW9JltnxLiwJnNZ
4vBKoQ2ZMtBUGK6u8o5C73EaP/ke33+BTnyjU+htsoKwdtDq94NCamaFo5hpsAfq
OLVdYp1vs6FkOcSjlMPL/afRSgHOmbbdg+0pSJZjCZuWhtZs+jWCGWVCvhbAZe9Q
IiWtKpqjIeR2Qii7eptPfRF4WqYE/DMDMOlqrvCM1WdDFwcGQ9a8+WGzaKUcBMan
kyN7/hU1lzxgC3giVKY9TJ1SOzMjrcGnCCQL5V2cyzkYaLOAYXbjb4HIDvq5MzZW
p+hDEKgDkVVX8nP/sqyFvA2vnv2k/kAA6Jt/0MRTAgMBAAEwDQYJKoZIhvcNAQEE
BQADggEBANCROXrm2HFM7/yl+b096Oc7WYPsJgpn7kp7ygxB7aaYFEoGCfccdudo
cn4Q4E75mAfxEIYrbI1TxYLw9QILqI1EuY0L935OEd3mLqA34bkWHCX1KVIxizji
idtJiSzwNakG17flcJ/6J6ey7Dy4vDPY9vN+6YBz4lyZoKXOLgicLZbYLck4S+12
evr8L6wyYroW5TY66osiHYz9GCzJsoORW2GejhGiq60JmR4AVjfW0+nzl9IqZUGk
RNsb4q5RafA4+SlPsFebYDqxqo2MMRHZZBKKwKvEWgIIPO8t8hRn75ea14XfGKFH
Fcuc+Csa2cD1stFYZqDv30Rs186mWb8=
-----END CERTIFICATE-----
