Certificate:
    Data:
        Version: 3 (0x2)
        Serial Number: 2 (0x2)
        Signature Algorithm: sha256WithRSAEncryption
        Issuer: CN=Rulezlan Certification Authority - G1, L=Arradon, ST=Bretagne, C=FR/emailAddress=goneri@rulezlan.org, O=Lanafrag, OU=Department of Computational Science
        Validity
            Not Before: Dec  2 15:23:20 2011 GMT
            Not After : Dec  1 15:23:20 2013 GMT
        Subject: CN=localhost, L=Arradon, ST=Bretagne, C=FR/emailAddress=goneri@rulezlan.org, O=Lanafrag, OU=Department of Computational Science
        Subject Public Key Info:
            Public Key Algorithm: rsaEncryption
            RSA Public Key: (4096 bit)
                Modulus (4096 bit):
                    00:cf:8e:f5:b2:04:77:8e:17:5e:31:b8:2f:08:37:
                    40:de:3b:a0:eb:ce:bb:c9:3b:5c:55:2b:0f:c4:a1:
                    10:4a:44:45:f8:30:42:88:76:9e:af:2c:45:cb:5e:
                    1c:d9:4b:fa:c4:15:9e:26:ab:89:f1:91:9d:ff:74:
                    4f:4c:9a:4e:0f:20:e0:db:01:0b:aa:85:78:1e:54:
                    e4:61:01:06:76:b3:b7:e3:bc:5d:17:d3:69:05:bf:
                    b2:2a:23:52:de:7e:40:90:9a:1c:5e:d3:54:b3:1e:
                    ba:fc:1c:78:a5:51:c3:4c:c5:ed:d4:ae:25:ac:4a:
                    87:20:96:e5:b7:8f:47:3c:ee:71:bf:3a:33:19:1d:
                    9c:c1:cc:29:9f:9e:8f:7a:50:18:90:20:a9:70:eb:
                    02:d6:6a:4b:f5:62:db:e8:4d:b2:87:51:c5:29:c3:
                    b5:e2:81:bd:17:8d:f3:fb:8b:11:4e:c1:c9:46:3a:
                    4d:c4:90:25:eb:0a:02:ea:a3:ec:86:6f:bf:cc:09:
                    32:2b:f3:77:e3:c1:02:38:c7:28:14:86:7e:ae:90:
                    83:37:ea:04:43:89:34:57:9d:f9:4d:bf:53:2a:ef:
                    84:35:4d:20:44:8c:96:6b:91:97:d7:2d:9a:02:7c:
                    b9:6a:52:8e:5a:34:bf:ba:b9:07:34:9d:72:8b:05:
                    96:93:ca:c7:0b:5c:85:5a:c4:7a:21:a4:8d:fa:a9:
                    e4:26:64:be:e8:b4:c4:cc:06:6c:0f:0c:89:5d:fc:
                    4e:fa:99:9a:0d:cd:65:7b:43:31:cf:52:67:11:48:
                    e8:8b:32:0f:1a:f7:ee:ec:5c:d3:18:f0:3b:e8:ff:
                    f4:d7:0a:ca:b5:64:a6:91:4c:c8:e9:9b:45:cc:ff:
                    0b:94:32:a5:49:9a:ba:52:95:82:05:82:d7:05:74:
                    c9:23:72:ed:b1:77:72:82:50:bc:76:94:51:b0:59:
                    33:36:36:4e:0a:a2:2b:e7:4c:ba:b8:52:30:ae:9a:
                    79:74:de:45:34:ee:ec:21:c9:9f:fd:d1:36:5b:3d:
                    04:c3:38:04:06:b5:6a:88:5f:18:40:e3:7c:75:06:
                    4d:60:0d:78:8a:75:9e:9a:18:26:5d:50:c5:60:43:
                    a5:bd:f5:44:2d:64:a5:0b:29:a1:17:c9:26:4b:12:
                    cd:c4:03:a8:d8:68:e4:7a:6a:4f:a0:d1:61:25:f5:
                    4b:19:ea:a6:03:7a:55:f1:61:40:39:8c:d5:37:0e:
                    0e:3b:c6:8b:91:d2:d8:ea:3f:10:d5:66:cc:7d:e7:
                    7a:7a:3a:1e:37:29:01:0f:cc:13:a2:b1:0a:dc:11:
                    90:52:6f:57:27:83:16:37:f5:c9:23:bc:d9:35:a4:
                    00:00:2d
                Exponent: 65537 (0x10001)
        X509v3 extensions:
            X509v3 Basic Constraints: 
                CA:FALSE
    Signature Algorithm: sha256WithRSAEncryption
        18:50:f9:86:78:13:e6:3f:3a:b2:97:e0:2e:e0:cb:3e:87:88:
        0b:d4:a5:ed:70:e0:8a:bf:ee:04:47:54:47:97:c5:09:f4:da:
        a5:d2:f7:ed:7e:e5:61:be:ff:17:41:f3:87:66:d9:46:de:28:
        cf:64:46:34:0d:d0:55:ef:14:98:9f:8d:d6:03:78:0c:e6:a9:
        e9:10:f9:af:0c:4c:ec:d1:09:4d:93:16:7f:8e:de:66:5e:ee:
        bb:c9:fa:a0:32:0f:2d:82:32:1e:56:a6:e9:b8:b9:9a:12:3b:
        eb:9c:be:c7:5e:ca:00:78:fc:83:b9:f6:af:0f:34:3a:23:01:
        12:ad:67:f1:23:93:62:30:c4:05:c4:d9:2a:b5:78:aa:c1:1f:
        0c:d7:5c:95:e6:ba:e2:5c:ba:b1:a7:d2:9e:81:6e:ea:2a:0e:
        4d:5c:dd:91:0d:de:5f:95:00:ab:9c:4e:83:9f:03:39:db:f8:
        65:f8:b6:f3:69:cb:68:49:48:76:c3:8d:ef:db:cd:98:f4:d1:
        56:b4:57:c9:aa:30:ea:97:f2:a4:af:35:b9:32:86:e9:fe:07:
        28:50:ff:dd:43:ca:6a:3d:4f:d0:92:80:87:b8:56:e0:88:76:
        7c:1a:00:60:32:91:4b:76:4a:82:ff:40:c8:25:45:74:96:27:
        4a:21:4a:f2:29:12:43:2e:33:49:fa:59:87:55:10:56:5b:12:
        09:9c:20:d9:dd:d3:db:17:23:db:c2:2e:47:fb:e8:6e:1c:8b:
        5f:d2:d6:5b:9e:5d:2f:5d:dc:e9:27:3d:fd:da:47:12:9f:c0:
        f2:85:9b:ca:78:48:63:ca:42:27:80:00:8e:c6:2c:8f:1d:09:
        08:56:58:8c:82:3b:83:c6:ee:13:cd:a7:62:3b:02:3d:37:8c:
        da:55:ae:88:d9:e2:41:ba:06:52:48:ac:42:e9:5e:83:26:fb:
        be:79:29:57:b3:d1:07:c7:ea:a5:bb:6b:e6:06:40:f3:1f:ab:
        c8:28:65:fa:2d:e8:52:7a:3a:65:b0:3a:e3:dc:85:d2:fc:a6:
        39:a7:67:ec:60:a4:8d:4c:03:1e:ed:05:3b:f1:9d:f1:5a:82:
        cf:4b:70:96:67:e7:f7:a9:b2:3f:46:4b:1d:f8:46:4a:6b:03:
        bb:b5:0f:9e:59:d7:9f:9b:b6:6a:98:15:8c:97:46:c6:9c:a8:
        09:4d:87:c1:45:74:05:18:ef:1d:ce:84:7c:23:b8:f7:f2:5e:
        96:22:6d:cd:97:82:34:15:40:e7:be:79:5c:f2:24:4e:5b:b1:
        22:1b:1e:1b:a2:54:03:ba:6d:58:5f:d5:68:6c:35:3f:98:2b:
        49:96:85:99:cb:07:cc:a5
-----BEGIN CERTIFICATE-----
MIIF/DCCA+SgAwIBAgIBAjANBgkqhkiG9w0BAQsFADCBxzEuMCwGA1UEAxMlUnVs
ZXpsYW4gQ2VydGlmaWNhdGlvbiBBdXRob3JpdHkgLSBHMTEQMA4GA1UEBxMHQXJy
YWRvbjERMA8GA1UECBMIQnJldGFnbmUxCzAJBgNVBAYTAkZSMSIwIAYJKoZIhvcN
AQkBFhNnb25lcmlAcnVsZXpsYW4ub3JnMREwDwYDVQQKEwhMYW5hZnJhZzEsMCoG
A1UECxMjRGVwYXJ0bWVudCBvZiBDb21wdXRhdGlvbmFsIFNjaWVuY2UwHhcNMTEx
MjAyMTUyMzIwWhcNMTMxMjAxMTUyMzIwWjCBqzESMBAGA1UEAxMJbG9jYWxob3N0
MRAwDgYDVQQHEwdBcnJhZG9uMREwDwYDVQQIEwhCcmV0YWduZTELMAkGA1UEBhMC
RlIxIjAgBgkqhkiG9w0BCQEWE2dvbmVyaUBydWxlemxhbi5vcmcxETAPBgNVBAoT
CExhbmFmcmFnMSwwKgYDVQQLEyNEZXBhcnRtZW50IG9mIENvbXB1dGF0aW9uYWwg
U2NpZW5jZTCCAiIwDQYJKoZIhvcNAQEBBQADggIPADCCAgoCggIBAM+O9bIEd44X
XjG4Lwg3QN47oOvOu8k7XFUrD8ShEEpERfgwQoh2nq8sRcteHNlL+sQVniarifGR
nf90T0yaTg8g4NsBC6qFeB5U5GEBBnazt+O8XRfTaQW/siojUt5+QJCaHF7TVLMe
uvwceKVRw0zF7dSuJaxKhyCW5bePRzzucb86MxkdnMHMKZ+ej3pQGJAgqXDrAtZq
S/Vi2+hNsodRxSnDteKBvReN8/uLEU7ByUY6TcSQJesKAuqj7IZvv8wJMivzd+PB
AjjHKBSGfq6QgzfqBEOJNFed+U2/UyrvhDVNIESMlmuRl9ctmgJ8uWpSjlo0v7q5
BzSdcosFlpPKxwtchVrEeiGkjfqp5CZkvui0xMwGbA8MiV38TvqZmg3NZXtDMc9S
ZxFI6IsyDxr37uxc0xjwO+j/9NcKyrVkppFMyOmbRcz/C5QypUmaulKVggWC1wV0
ySNy7bF3coJQvHaUUbBZMzY2TgqiK+dMurhSMK6aeXTeRTTu7CHJn/3RNls9BMM4
BAa1aohfGEDjfHUGTWANeIp1npoYJl1QxWBDpb31RC1kpQspoRfJJksSzcQDqNho
5HpqT6DRYSX1SxnqpgN6VfFhQDmM1TcODjvGi5HS2Oo/ENVmzH3neno6HjcpAQ/M
E6KxCtwRkFJvVyeDFjf1ySO82TWkAAAtAgMBAAGjDTALMAkGA1UdEwQCMAAwDQYJ
KoZIhvcNAQELBQADggIBABhQ+YZ4E+Y/OrKX4C7gyz6HiAvUpe1w4Iq/7gRHVEeX
xQn02qXS9+1+5WG+/xdB84dm2UbeKM9kRjQN0FXvFJifjdYDeAzmqekQ+a8MTOzR
CU2TFn+O3mZe7rvJ+qAyDy2CMh5Wpum4uZoSO+ucvsdeygB4/IO59q8PNDojARKt
Z/Ejk2IwxAXE2Sq1eKrBHwzXXJXmuuJcurGn0p6BbuoqDk1c3ZEN3l+VAKucToOf
Aznb+GX4tvNpy2hJSHbDje/bzZj00Va0V8mqMOqX8qSvNbkyhun+ByhQ/91Dymo9
T9CSgIe4VuCIdnwaAGAykUt2SoL/QMglRXSWJ0ohSvIpEkMuM0n6WYdVEFZbEgmc
INnd09sXI9vCLkf76G4ci1/S1lueXS9d3OknPf3aRxKfwPKFm8p4SGPKQieAAI7G
LI8dCQhWWIyCO4PG7hPNp2I7Aj03jNpVrojZ4kG6BlJIrELpXoMm+755KVez0QfH
6qW7a+YGQPMfq8goZfot6FJ6OmWwOuPchdL8pjmnZ+xgpI1MAx7tBTvxnfFags9L
cJZn5/epsj9GSx34RkprA7u1D55Z15+btmqYFYyXRsacqAlNh8FFdAUY7x3OhHwj
uPfyXpYibc2XgjQVQOe+eVzyJE5bsSIbHhuiVAO6bVhf1WhsNT+YK0mWhZnLB8yl
-----END CERTIFICATE-----
