Certificate:
    Data:
        Version: 1 (0x0)
        Serial Number: 2 (0x2)
    Signature Algorithm: md5WithRSAEncryption
        Issuer: O=fusioninventory.org, OU=test certification authority, CN=test_ca/emailAddress=test@fusioninventory.org
        Validity
            Not Before: Jan  6 22:43:12 2015 GMT
            Not After : Jan  3 22:43:12 2025 GMT
        Subject: O=fusioninventory.org, OU=alternative trusted test certificate, CN=test.fusioninventory.org/emailAddress=test@fusioninventory.org
        Subject Public Key Info:
            Public Key Algorithm: rsaEncryption
                Public-Key: (2048 bit)
                Modulus:
                    00:da:f5:32:a6:b6:89:c2:ef:4b:6f:3c:03:8d:42:
                    b0:6d:48:8d:34:b3:73:7f:10:8f:d3:9c:b4:fe:7a:
                    41:3f:95:7b:25:66:a0:35:53:9c:59:87:94:3c:d9:
                    60:03:2b:0b:00:48:b8:12:2a:38:3e:4a:20:f7:22:
                    84:87:ac:e9:98:ee:fc:a3:73:2b:e7:28:ab:c3:89:
                    3b:24:9c:59:63:35:59:6f:c6:9d:f7:cf:52:c8:24:
                    e6:f1:2c:50:65:fa:22:83:ff:82:82:82:85:b0:cd:
                    b6:20:54:e0:bb:23:d1:1d:cd:ac:07:d5:fe:16:5c:
                    49:a5:c0:7e:6c:6c:ed:a3:cb:81:94:e6:cb:aa:e1:
                    37:22:31:ba:17:5f:69:af:e9:a0:48:e1:1a:59:f0:
                    61:5d:14:63:27:51:71:14:fd:ff:ad:cd:32:50:b9:
                    0d:fa:bf:95:6b:eb:c5:d7:b3:0a:86:11:8e:04:fe:
                    80:51:ea:8b:70:86:ad:18:c5:97:bf:4e:17:69:0b:
                    ad:2d:f8:fe:40:4d:3b:a1:1e:0b:57:3c:44:00:ec:
                    af:1c:84:f5:d4:8a:bf:65:5c:72:36:d4:45:87:da:
                    31:f8:cb:8f:fc:c5:77:5e:c2:53:66:80:97:d4:55:
                    98:a8:60:42:78:b9:22:c2:8c:91:30:a2:67:0f:7b:
                    42:f3
                Exponent: 65537 (0x10001)
        X509v3 extensions:
            X509v3 Basic Constraints: 
                CA:FALSE
            X509v3 Subject Key Identifier: 
                18:41:DC:BE:C6:97:3E:7C:DB:65:0D:84:F0:96:5A:08:53:D9:BC:7C
            X509v3 Subject Alternative Name: 
                DNS:other.fusioninventory.org, IP Address:127.0.0.1
    Signature Algorithm: md5WithRSAEncryption
         ac:e9:0e:2f:d0:19:f3:10:4c:eb:5b:bb:83:2e:88:2f:8a:29:
         df:e3:65:39:f0:9f:dc:aa:22:f2:d4:1c:e1:3a:a4:ac:7b:45:
         9b:83:3b:da:57:15:38:d5:e0:53:aa:ac:af:43:a7:60:1a:2a:
         e5:d3:5c:5b:df:9d:ba:f5:94:bf:00:f6:64:a1:a6:f9:f8:f4:
         ec:31:c6:88:27:eb:04:a0:73:f4:94:03:9a:2b:36:e3:93:62:
         04:9a:ab:41:e0:7a:09:77:14:48:88:7d:c9:91:41:cf:b7:ab:
         1b:76:4c:bf:c1:74:77:78:d1:69:cf:ff:64:96:1c:01:db:86:
         d4:44:ae:61:98:9d:d5:12:6c:28:a3:9f:9f:3f:3f:9b:6d:c3:
         31:a0:46:99:df:ba:0a:44:c3:8f:d0:1d:f2:b9:65:9a:e6:35:
         6f:75:e5:4e:fd:e4:e5:27:f2:e9:6f:1d:34:5c:19:5a:8a:c7:
         71:3e:71:9b:3e:dd:d6:d7:79:94:26:e6:d3:a2:0c:5b:5e:f2:
         fa:4c:36:c2:4a:83:15:59:7f:37:fc:e0:c3:cd:44:1d:e1:72:
         b6:4c:42:5c:6d:45:5a:1f:f9:27:67:7a:27:f5:e3:b6:be:e3:
         db:87:ac:5e:64:b9:a8:bf:da:bc:ea:8d:57:e2:7d:26:f5:82:
         9e:41:96:1c
-----BEGIN CERTIFICATE-----
MIID6TCCAtECAQIwDQYJKoZIhvcNAQEEBQAwgYAxHDAaBgNVBAoTE2Z1c2lvbmlu
dmVudG9yeS5vcmcxJTAjBgNVBAsTHHRlc3QgY2VydGlmaWNhdGlvbiBhdXRob3Jp
dHkxEDAOBgNVBAMUB3Rlc3RfY2ExJzAlBgkqhkiG9w0BCQEWGHRlc3RAZnVzaW9u
aW52ZW50b3J5Lm9yZzAeFw0xNTAxMDYyMjQzMTJaFw0yNTAxMDMyMjQzMTJaMIGZ
MRwwGgYDVQQKExNmdXNpb25pbnZlbnRvcnkub3JnMS0wKwYDVQQLEyRhbHRlcm5h
dGl2ZSB0cnVzdGVkIHRlc3QgY2VydGlmaWNhdGUxITAfBgNVBAMTGHRlc3QuZnVz
aW9uaW52ZW50b3J5Lm9yZzEnMCUGCSqGSIb3DQEJARYYdGVzdEBmdXNpb25pbnZl
bnRvcnkub3JnMIIBIjANBgkqhkiG9w0BAQEFAAOCAQ8AMIIBCgKCAQEA2vUypraJ
wu9LbzwDjUKwbUiNNLNzfxCP05y0/npBP5V7JWagNVOcWYeUPNlgAysLAEi4Eio4
Pkog9yKEh6zpmO78o3Mr5yirw4k7JJxZYzVZb8ad989SyCTm8SxQZfoig/+CgoKF
sM22IFTguyPRHc2sB9X+FlxJpcB+bGzto8uBlObLquE3IjG6F19pr+mgSOEaWfBh
XRRjJ1FxFP3/rc0yULkN+r+Va+vF17MKhhGOBP6AUeqLcIatGMWXv04XaQutLfj+
QE07oR4LVzxEAOyvHIT11Iq/ZVxyNtRFh9ox+MuP/MV3XsJTZoCX1FWYqGBCeLki
woyRMKJnD3tC8wIDAQABo1gwVjAJBgNVHRMEAjAAMB0GA1UdDgQWBBQYQdy+xpc+
fNtlDYTwlloIU9m8fDAqBgNVHREEIzAhghlvdGhlci5mdXNpb25pbnZlbnRvcnku
b3JnhwR/AAABMA0GCSqGSIb3DQEBBAUAA4IBAQCs6Q4v0BnzEEzrW7uDLogviinf
42U58J/cqiLy1BzhOqSse0WbgzvaVxU41eBTqqyvQ6dgGirl01xb35269ZS/APZk
oab5+PTsMcaIJ+sEoHP0lAOaKzbjk2IEmqtB4HoJdxRIiH3JkUHPt6sbdky/wXR3
eNFpz/9klhwB24bURK5hmJ3VEmwoo5+fPz+bbcMxoEaZ37oKRMOP0B3yuWWa5jVv
deVO/eTlJ/Lpbx00XBlaisdxPnGbPt3W13mUJubTogxbXvL6TDbCSoMVWX83/ODD
zUQd4XK2TEJcbUVaH/knZ3on9eO2vuPbh6xeZLmov9q86o1X4n0m9YKeQZYc
-----END CERTIFICATE-----
