Certificate:
    Data:
        Version: 1 (0x0)
        Serial Number: 2 (0x2)
    Signature Algorithm: md5WithRSAEncryption
        Issuer: O=fusioninventory.org, OU=test certification authority, CN=test_ca/emailAddress=test@fusioninventory.org
        Validity
            Not Before: Jul 17 21:25:58 2013 GMT
            Not After : Jul 15 21:25:58 2023 GMT
        Subject: O=fusioninventory.org, OU=alternative trusted test certificate, CN=test.fusioninventory.org/emailAddress=test@fusioninventory.org
        Subject Public Key Info:
            Public Key Algorithm: rsaEncryption
                Public-Key: (2048 bit)
                Modulus:
                    00:ea:03:a7:e4:95:d7:b3:d5:67:ab:6f:8d:89:95:
                    c5:d4:d7:c5:fc:0e:81:2e:76:a7:a5:06:5e:65:3b:
                    7c:c9:be:11:56:58:3b:c3:9d:78:85:1e:99:93:82:
                    52:d3:2e:bb:17:fb:21:56:6a:fe:65:b0:57:ae:26:
                    63:8d:5d:c9:3a:be:5d:a5:89:9e:a4:49:2a:a3:0e:
                    dc:dc:cf:87:02:89:5a:80:b8:a0:44:3b:c7:f6:07:
                    41:f0:c1:07:d2:a8:74:06:5e:a4:b7:82:4a:8b:73:
                    38:1f:d2:10:ae:09:65:e9:85:03:2a:4b:c8:a3:2f:
                    b1:6c:57:89:c7:fc:59:ca:bb:6a:f4:f7:dd:b3:98:
                    64:82:31:7c:fd:aa:e9:a2:7c:ee:8b:22:cc:f4:3a:
                    80:4f:5e:ed:73:d6:55:89:31:a3:63:4c:51:56:16:
                    ba:33:00:16:bd:71:05:6f:4a:47:19:2b:0b:b4:67:
                    2a:c9:48:12:28:3d:6d:bd:11:2b:83:1d:6b:7d:0e:
                    15:ae:86:a5:51:16:a8:19:1a:92:63:95:85:cd:c2:
                    ef:43:db:46:e5:eb:01:ae:5c:45:61:ca:9f:fc:3b:
                    5e:3e:ed:2e:ff:73:c2:cd:2f:b8:9e:cb:82:fe:62:
                    83:7d:de:53:3f:46:5c:25:5b:ac:9e:12:8e:5d:aa:
                    ba:57
                Exponent: 65537 (0x10001)
        X509v3 extensions:
            X509v3 Basic Constraints: 
                CA:FALSE
            X509v3 Subject Key Identifier: 
                89:43:13:7F:58:42:A9:4B:18:58:F4:D4:7C:CD:3F:11:9B:01:7F:C1
            X509v3 Subject Alternative Name: 
                DNS:other.fusioninventory.org, DNS:localhost
    Signature Algorithm: md5WithRSAEncryption
         3e:bc:e7:51:4c:d8:ef:08:e4:a8:28:e8:90:fa:56:14:ca:dd:
         11:fa:0e:5f:db:e2:94:96:16:44:29:d4:51:1b:3a:6a:01:b9:
         cc:45:10:17:b2:fb:dc:d5:23:86:fd:d8:9b:be:51:99:e7:63:
         71:0a:59:f8:7b:7e:0a:95:7d:0d:21:6f:70:1b:14:c5:e1:2b:
         1f:c4:3c:6f:87:71:bd:9f:a1:bf:82:63:48:10:b6:3a:ba:af:
         18:58:f1:74:fc:63:18:a4:dd:76:b5:c9:d3:d3:92:a6:57:83:
         34:be:c5:8b:57:3a:f5:70:51:0f:82:1f:23:9d:28:e2:5f:b9:
         64:de:0b:9b:bd:06:e1:9a:02:44:6c:c4:fb:25:9f:6b:3a:94:
         60:a6:84:f7:bd:2d:44:d1:d7:8b:04:5b:14:b2:2d:7b:40:3d:
         d2:15:c8:9a:33:8d:cf:8e:3e:d2:73:af:e5:52:dd:26:59:3a:
         02:b7:5e:4c:78:8b:54:e9:33:de:f0:89:eb:87:7d:85:de:af:
         08:3d:c4:86:6c:84:5c:d7:c8:18:e0:e6:65:26:a6:45:a8:99:
         39:f2:37:22:e8:89:98:78:39:56:20:0a:6b:1b:d4:73:f1:11:
         7d:19:4c:50:86:4d:ca:7a:b7:f9:c3:2e:49:ab:cc:9d:2f:19:
         78:24:cc:31
-----BEGIN CERTIFICATE-----
MIID7jCCAtYCAQIwDQYJKoZIhvcNAQEEBQAwgYAxHDAaBgNVBAoTE2Z1c2lvbmlu
dmVudG9yeS5vcmcxJTAjBgNVBAsTHHRlc3QgY2VydGlmaWNhdGlvbiBhdXRob3Jp
dHkxEDAOBgNVBAMUB3Rlc3RfY2ExJzAlBgkqhkiG9w0BCQEWGHRlc3RAZnVzaW9u
aW52ZW50b3J5Lm9yZzAeFw0xMzA3MTcyMTI1NThaFw0yMzA3MTUyMTI1NThaMIGZ
MRwwGgYDVQQKExNmdXNpb25pbnZlbnRvcnkub3JnMS0wKwYDVQQLEyRhbHRlcm5h
dGl2ZSB0cnVzdGVkIHRlc3QgY2VydGlmaWNhdGUxITAfBgNVBAMTGHRlc3QuZnVz
aW9uaW52ZW50b3J5Lm9yZzEnMCUGCSqGSIb3DQEJARYYdGVzdEBmdXNpb25pbnZl
bnRvcnkub3JnMIIBIjANBgkqhkiG9w0BAQEFAAOCAQ8AMIIBCgKCAQEA6gOn5JXX
s9Vnq2+NiZXF1NfF/A6BLnanpQZeZTt8yb4RVlg7w514hR6Zk4JS0y67F/shVmr+
ZbBXriZjjV3JOr5dpYmepEkqow7c3M+HAolagLigRDvH9gdB8MEH0qh0Bl6kt4JK
i3M4H9IQrgll6YUDKkvIoy+xbFeJx/xZyrtq9Pfds5hkgjF8/arponzuiyLM9DqA
T17tc9ZViTGjY0xRVha6MwAWvXEFb0pHGSsLtGcqyUgSKD1tvRErgx1rfQ4Vroal
URaoGRqSY5WFzcLvQ9tG5esBrlxFYcqf/DtePu0u/3PCzS+4nsuC/mKDfd5TP0Zc
JVusnhKOXaq6VwIDAQABo10wWzAJBgNVHRMEAjAAMB0GA1UdDgQWBBSJQxN/WEKp
SxhY9NR8zT8RmwF/wTAvBgNVHREEKDAmghlvdGhlci5mdXNpb25pbnZlbnRvcnku
b3Jngglsb2NhbGhvc3QwDQYJKoZIhvcNAQEEBQADggEBAD6851FM2O8I5Kgo6JD6
VhTK3RH6Dl/b4pSWFkQp1FEbOmoBucxFEBey+9zVI4b92Ju+UZnnY3EKWfh7fgqV
fQ0hb3AbFMXhKx/EPG+Hcb2fob+CY0gQtjq6rxhY8XT8Yxik3Xa1ydPTkqZXgzS+
xYtXOvVwUQ+CHyOdKOJfuWTeC5u9BuGaAkRsxPsln2s6lGCmhPe9LUTR14sEWxSy
LXtAPdIVyJozjc+OPtJzr+VS3SZZOgK3Xkx4i1TpM97wieuHfYXerwg9xIZshFzX
yBjg5mUmpkWomTnyNyLoiZh4OVYgCmsb1HPxEX0ZTFCGTcp6t/nDLkmrzJ0vGXgk
zDE=
-----END CERTIFICATE-----
