Certificate:
    Data:
        Version: 1 (0x0)
        Serial Number: 4096 (0x1000)
    Signature Algorithm: sha1WithRSAEncryption
        Issuer: O=fusioninventory.org, OU=test certification authority, CN=test_ca/emailAddress=test@fusioninventory.org
        Validity
            Not Before: Jun 27 09:25:35 2015 GMT
            Not After : Jun 24 09:25:35 2025 GMT
        Subject: O=fusioninventory.org, OU=alternative trusted test certificate, CN=test.fusioninventory.org/emailAddress=test@fusioninventory.org
        Subject Public Key Info:
            Public Key Algorithm: rsaEncryption
                Public-Key: (2048 bit)
                Modulus:
                    00:94:65:38:7c:22:56:6b:d6:d9:db:f4:c2:0c:94:
                    33:0b:89:dc:b0:e9:ed:5f:a0:9d:78:d3:6f:27:56:
                    66:ae:7d:17:c1:5a:40:0a:54:03:d6:4c:f9:b9:fb:
                    92:03:b3:2b:af:c1:33:f4:44:5f:b1:f4:61:28:4c:
                    cf:ab:05:d5:c3:19:27:12:ec:a4:41:0e:fa:b1:c0:
                    5e:a2:99:13:59:1a:16:dd:6b:6f:6a:01:51:e4:d5:
                    dc:c7:08:e0:23:05:dc:92:60:fe:bc:03:e0:62:89:
                    35:b0:85:d2:e6:bb:1b:94:5e:6f:f3:4e:65:2e:b5:
                    10:29:21:01:99:c9:e1:bd:76:f9:dc:59:6c:af:8f:
                    45:b7:6e:db:cb:3e:3c:b6:5c:6b:2b:2e:b7:1f:18:
                    ab:af:b0:28:cd:81:85:7d:ea:51:3f:06:65:08:86:
                    8c:eb:df:4e:98:f3:50:17:51:ab:b4:6f:8d:5a:4e:
                    9a:5f:11:15:37:6e:a8:6e:96:f9:59:97:34:62:9f:
                    53:1e:c1:59:f6:20:45:d3:92:d7:1b:8d:18:3f:3d:
                    58:22:a8:cb:2a:d7:03:68:a2:52:bb:59:51:38:a5:
                    cb:19:3e:14:b2:aa:7b:ce:4a:96:a4:f1:6d:bf:62:
                    42:58:c4:d0:ac:2d:e7:0a:e2:fb:d9:c5:01:b7:55:
                    7d:53
                Exponent: 65537 (0x10001)
        X509v3 extensions:
            X509v3 Basic Constraints: 
                CA:FALSE
            X509v3 Subject Key Identifier: 
                BC:A5:1D:4A:A7:AE:47:44:1C:13:3F:3D:45:16:08:3D:2D:72:57:8B
            X509v3 Subject Alternative Name: 
                DNS:other.fusioninventory.org, IP Address:127.0.0.1
    Signature Algorithm: sha1WithRSAEncryption
         0d:ee:58:e5:41:d5:be:70:be:6e:e7:17:92:5a:2f:92:5a:db:
         89:5f:63:ca:b6:b3:8b:65:51:eb:55:c6:1f:32:cf:12:b5:dc:
         c1:1a:9f:94:1d:dd:f1:4d:1e:e9:4b:ae:73:16:a7:3f:be:0c:
         71:c8:85:26:aa:71:10:2c:52:95:99:7f:82:42:a8:cf:31:db:
         8c:20:50:f4:f5:ec:80:8b:ad:73:9d:95:54:0b:44:2a:4f:89:
         18:f5:7d:14:9b:50:5a:aa:29:95:dc:12:c1:aa:17:59:6e:90:
         99:29:6d:80:ba:8f:1b:c6:26:b5:90:43:f6:b7:d5:4c:88:c2:
         e3:42:bb:56:b4:52:d1:a1:4a:c6:5a:a1:db:96:33:02:ef:72:
         8e:7b:42:d8:79:42:17:f4:65:3b:1d:19:69:e1:44:c8:27:b6:
         db:ff:fd:12:52:7c:7a:4c:f4:bd:d6:a3:be:dc:73:3f:84:35:
         6a:b6:dc:29:e7:67:70:35:54:f1:17:c8:65:f6:3f:ab:39:86:
         8c:f5:e1:d8:c9:db:76:a6:ff:9a:32:5c:cc:11:af:31:46:4c:
         26:fd:26:a9:2c:cf:9a:56:e9:b8:01:fd:f0:ad:e8:8c:88:cb:
         80:01:c2:46:8d:f5:c9:bc:1b:01:08:1b:f0:2d:b6:f1:fd:d1:
         15:b0:11:58
-----BEGIN CERTIFICATE-----
MIID6jCCAtICAhAAMA0GCSqGSIb3DQEBBQUAMIGAMRwwGgYDVQQKExNmdXNpb25p
bnZlbnRvcnkub3JnMSUwIwYDVQQLExx0ZXN0IGNlcnRpZmljYXRpb24gYXV0aG9y
aXR5MRAwDgYDVQQDFAd0ZXN0X2NhMScwJQYJKoZIhvcNAQkBFhh0ZXN0QGZ1c2lv
bmludmVudG9yeS5vcmcwHhcNMTUwNjI3MDkyNTM1WhcNMjUwNjI0MDkyNTM1WjCB
mTEcMBoGA1UEChMTZnVzaW9uaW52ZW50b3J5Lm9yZzEtMCsGA1UECxMkYWx0ZXJu
YXRpdmUgdHJ1c3RlZCB0ZXN0IGNlcnRpZmljYXRlMSEwHwYDVQQDExh0ZXN0LmZ1
c2lvbmludmVudG9yeS5vcmcxJzAlBgkqhkiG9w0BCQEWGHRlc3RAZnVzaW9uaW52
ZW50b3J5Lm9yZzCCASIwDQYJKoZIhvcNAQEBBQADggEPADCCAQoCggEBAJRlOHwi
VmvW2dv0wgyUMwuJ3LDp7V+gnXjTbydWZq59F8FaQApUA9ZM+bn7kgOzK6/BM/RE
X7H0YShMz6sF1cMZJxLspEEO+rHAXqKZE1kaFt1rb2oBUeTV3McI4CMF3JJg/rwD
4GKJNbCF0ua7G5Reb/NOZS61ECkhAZnJ4b12+dxZbK+PRbdu28s+PLZcaysutx8Y
q6+wKM2BhX3qUT8GZQiGjOvfTpjzUBdRq7RvjVpOml8RFTduqG6W+VmXNGKfUx7B
WfYgRdOS1xuNGD89WCKoyyrXA2iiUrtZUTilyxk+FLKqe85KlqTxbb9iQljE0Kwt
5wri+9nFAbdVfVMCAwEAAaNYMFYwCQYDVR0TBAIwADAdBgNVHQ4EFgQUvKUdSqeu
R0QcEz89RRYIPS1yV4swKgYDVR0RBCMwIYIZb3RoZXIuZnVzaW9uaW52ZW50b3J5
Lm9yZ4cEfwAAATANBgkqhkiG9w0BAQUFAAOCAQEADe5Y5UHVvnC+bucXklovklrb
iV9jyrazi2VR61XGHzLPErXcwRqflB3d8U0e6UuucxanP74McciFJqpxECxSlZl/
gkKozzHbjCBQ9PXsgIutc52VVAtEKk+JGPV9FJtQWqopldwSwaoXWW6QmSltgLqP
G8YmtZBD9rfVTIjC40K7VrRS0aFKxlqh25YzAu9yjntC2HlCF/RlOx0ZaeFEyCe2
2//9ElJ8ekz0vdajvtxzP4Q1arbcKedncDVU8RfIZfY/qzmGjPXh2Mnbdqb/mjJc
zBGvMUZMJv0mqSzPmlbpuAH98K3ojIjLgAHCRo31ybwbAQgb8C228f3RFbARWA==
-----END CERTIFICATE-----
