Certificate:
    Data:
        Version: 3 (0x2)
        Serial Number: 2 (0x2)
        Signature Algorithm: md5WithRSAEncryption
        Issuer: O=fusioninventory.org, OU=test certification authority, CN=test_ca/emailAddress=test@fusioninventory.org
        Validity
            Not Before: Jun 26 18:50:55 2011 GMT
            Not After : Jun 25 18:50:55 2013 GMT
        Subject: O=fusioninventory.org, OU=alternative trusted test certificate, CN=test.fusioninventory.org/emailAddress=test@fusioninventory.org
        Subject Public Key Info:
            Public Key Algorithm: rsaEncryption
                Public-Key: (2048 bit)
                Modulus:
                    00:b7:cf:22:c8:7c:3a:2f:90:80:2b:2e:ee:1f:49:
                    3b:2c:68:7d:a3:a6:2f:7c:a9:05:f2:50:2d:63:5f:
                    f0:20:9e:b9:9e:01:ab:9b:2a:86:f6:9c:64:e9:95:
                    56:73:74:d6:8e:12:52:a0:31:80:47:09:17:4e:2a:
                    5b:b2:77:42:b2:65:3b:14:93:57:d0:09:31:9c:3a:
                    21:a1:79:c9:9f:13:2c:b5:66:73:5a:1a:76:6b:28:
                    a4:a3:f9:aa:ec:0f:66:55:e6:98:a1:9d:9b:b8:64:
                    bc:7a:d8:91:e1:e9:31:68:a5:d2:18:f5:fa:0a:32:
                    84:77:16:e9:3c:4f:65:90:58:f2:4b:d0:6f:96:c2:
                    e1:6b:99:59:9a:a2:60:5d:f1:ff:00:1d:42:16:ab:
                    fb:c5:05:c6:3c:2f:65:c3:1a:45:f7:91:76:2c:df:
                    01:c3:54:b9:90:65:36:58:52:0f:89:98:a4:a2:4e:
                    a0:5d:64:37:12:2b:6d:42:e7:3e:2f:ee:bb:8b:38:
                    1a:4a:ca:51:9e:2a:30:79:0d:bd:ff:92:e0:b0:b7:
                    9e:9e:ed:d4:ee:bb:d2:df:8b:19:cf:f5:70:cc:be:
                    2d:37:7c:81:3e:df:e0:33:62:5a:6f:18:cf:2b:8c:
                    5b:68:84:5b:b4:7a:94:9d:39:be:9d:8c:04:d1:98:
                    35:c9
                Exponent: 65537 (0x10001)
        X509v3 extensions:
            X509v3 Basic Constraints: 
                CA:FALSE
            X509v3 Subject Key Identifier: 
                5C:05:79:B8:C3:CF:17:B4:0D:BB:FD:31:21:01:80:5B:59:B7:63:D9
            X509v3 Subject Alternative Name: 
                DNS:other.fusioninventory.org, DNS:localhost
    Signature Algorithm: md5WithRSAEncryption
        8b:79:e8:35:0e:66:5f:87:78:82:cc:8f:eb:04:d7:33:4a:cb:
        da:6e:df:ec:f8:7f:ca:d3:eb:6c:f5:34:af:7d:21:bc:0b:b1:
        f2:70:5e:ae:4f:53:5a:b5:ab:73:01:69:91:6a:db:1b:51:f5:
        94:60:d8:ef:69:06:05:4d:c3:b3:51:4a:79:2f:16:41:45:d8:
        c4:d9:ec:55:89:ee:20:7f:3c:e4:83:72:db:9e:29:0f:6c:9d:
        39:0c:be:48:04:bb:90:44:ee:90:01:bf:11:91:36:3b:50:13:
        b7:a9:4e:ae:75:59:90:a3:e8:11:1e:c3:e5:bd:cd:89:a9:6e:
        eb:6a:db:70:db:26:fd:1c:fc:86:f3:8d:36:d4:95:1a:b6:c5:
        81:c0:84:73:90:14:d0:8a:fc:d4:1f:8e:d1:fc:e0:4c:b1:04:
        ae:8b:6f:d4:c7:3c:53:dc:c3:a1:84:d3:16:ed:e8:1a:81:29:
        0b:9d:4a:53:8f:80:62:84:a8:2f:91:90:2a:98:5b:bd:cf:39:
        94:ff:06:ce:d7:bc:c1:d9:f0:9f:62:2f:cd:84:c8:38:6d:e0:
        a2:09:97:ff:62:73:b0:4d:f3:fd:ed:c7:14:cc:36:9c:83:dd:
        42:18:69:ee:2d:af:39:a4:3d:e3:c4:1f:3a:8d:9b:a0:95:55:
        56:16:12:0b
-----BEGIN CERTIFICATE-----
MIID8zCCAtugAwIBAgIBAjANBgkqhkiG9w0BAQQFADCBgDEcMBoGA1UEChMTZnVz
aW9uaW52ZW50b3J5Lm9yZzElMCMGA1UECxMcdGVzdCBjZXJ0aWZpY2F0aW9uIGF1
dGhvcml0eTEQMA4GA1UEAxQHdGVzdF9jYTEnMCUGCSqGSIb3DQEJARYYdGVzdEBm
dXNpb25pbnZlbnRvcnkub3JnMB4XDTExMDYyNjE4NTA1NVoXDTEzMDYyNTE4NTA1
NVowgZkxHDAaBgNVBAoTE2Z1c2lvbmludmVudG9yeS5vcmcxLTArBgNVBAsTJGFs
dGVybmF0aXZlIHRydXN0ZWQgdGVzdCBjZXJ0aWZpY2F0ZTEhMB8GA1UEAxMYdGVz
dC5mdXNpb25pbnZlbnRvcnkub3JnMScwJQYJKoZIhvcNAQkBFhh0ZXN0QGZ1c2lv
bmludmVudG9yeS5vcmcwggEiMA0GCSqGSIb3DQEBAQUAA4IBDwAwggEKAoIBAQC3
zyLIfDovkIArLu4fSTssaH2jpi98qQXyUC1jX/AgnrmeAaubKob2nGTplVZzdNaO
ElKgMYBHCRdOKluyd0KyZTsUk1fQCTGcOiGhecmfEyy1ZnNaGnZrKKSj+arsD2ZV
5pihnZu4ZLx62JHh6TFopdIY9foKMoR3Fuk8T2WQWPJL0G+WwuFrmVmaomBd8f8A
HUIWq/vFBcY8L2XDGkX3kXYs3wHDVLmQZTZYUg+JmKSiTqBdZDcSK21C5z4v7ruL
OBpKylGeKjB5Db3/kuCwt56e7dTuu9LfixnP9XDMvi03fIE+3+AzYlpvGM8rjFto
hFu0epSdOb6djATRmDXJAgMBAAGjXTBbMAkGA1UdEwQCMAAwHQYDVR0OBBYEFFwF
ebjDzxe0Dbv9MSEBgFtZt2PZMC8GA1UdEQQoMCaCGW90aGVyLmZ1c2lvbmludmVu
dG9yeS5vcmeCCWxvY2FsaG9zdDANBgkqhkiG9w0BAQQFAAOCAQEAi3noNQ5mX4d4
gsyP6wTXM0rL2m7f7Ph/ytPrbPU0r30hvAux8nBerk9TWrWrcwFpkWrbG1H1lGDY
72kGBU3Ds1FKeS8WQUXYxNnsVYnuIH885INy254pD2ydOQy+SAS7kETukAG/EZE2
O1ATt6lOrnVZkKPoER7D5b3Nialu62rbcNsm/Rz8hvONNtSVGrbFgcCEc5AU0Ir8
1B+O0fzgTLEErotv1Mc8U9zDoYTTFu3oGoEpC51KU4+AYoSoL5GQKphbvc85lP8G
zte8wdnwn2IvzYTIOG3gogmX/2JzsE3z/e3HFMw2nIPdQhhp7i2vOaQ948QfOo2b
oJVVVhYSCw==
-----END CERTIFICATE-----
