Certificate:
    Data:
        Version: 3 (0x2)
        Serial Number: 4096 (0x1000)
        Signature Algorithm: sha256WithRSAEncryption
        Issuer: O=fusioninventory.org, OU=test certification authority, CN=test_ca/emailAddress=test@fusioninventory.org
        Validity
            Not Before: Nov 26 09:49:47 2020 GMT
            Not After : Nov 24 09:49:47 2030 GMT
        Subject: O=fusioninventory.org, OU=alternative trusted test certificate, CN=test.fusioninventory.org/emailAddress=test@fusioninventory.org
        Subject Public Key Info:
            Public Key Algorithm: rsaEncryption
                RSA Public-Key: (2048 bit)
                Modulus:
                    00:b0:50:e2:46:b8:05:48:c8:70:80:d4:95:91:d1:
                    15:99:d7:b2:b9:48:a8:82:59:5f:95:58:4c:84:f4:
                    61:b1:c9:ac:b0:86:4d:6d:c7:96:47:38:3e:8c:9a:
                    69:5a:b4:ed:e3:9c:1a:c7:a2:52:f0:98:86:b0:71:
                    79:29:65:48:a2:0b:dd:c0:90:17:3a:3e:87:72:0a:
                    bb:87:e7:e6:99:a8:a6:34:89:52:eb:1a:d9:6f:4e:
                    b7:3b:8c:fe:8e:11:37:3d:ea:5b:72:54:c1:80:b3:
                    23:1a:6a:b2:de:ab:d7:1e:3c:0d:eb:d0:c5:a6:70:
                    59:12:93:3e:30:6b:2c:ee:15:68:67:2d:56:f7:dc:
                    64:46:c3:fd:18:a6:53:3a:6a:8c:d2:04:73:98:2c:
                    e9:c6:25:d9:2c:34:9b:e8:0c:03:e7:bf:08:24:06:
                    18:52:06:26:55:1a:ea:2f:ab:58:ce:aa:c4:71:36:
                    5f:fb:0f:73:65:6a:fa:46:7b:4c:2b:b2:3e:76:73:
                    a0:30:c6:ea:85:e0:a4:52:a2:b2:5c:33:78:ed:54:
                    05:68:be:cf:8f:16:60:33:48:eb:7c:3c:47:b1:3f:
                    fd:1f:42:8a:0e:af:9f:6a:21:79:da:46:7e:2f:c8:
                    f8:2c:87:f1:51:38:b4:0d:aa:69:61:f6:ab:71:2d:
                    75:7b
                Exponent: 65537 (0x10001)
        X509v3 extensions:
            X509v3 Basic Constraints: 
                CA:FALSE
            X509v3 Subject Key Identifier: 
                97:6C:6E:E7:BC:D1:79:2A:B1:71:EF:09:DC:F1:5E:0F:2A:D3:DA:A0
            X509v3 Subject Alternative Name: 
                DNS:other.fusioninventory.org, IP Address:127.0.0.1
    Signature Algorithm: sha256WithRSAEncryption
         1f:c6:20:90:11:ca:a2:ac:77:a4:62:26:51:fb:72:33:9f:f4:
         97:6c:1e:8f:a0:4b:2a:98:4c:28:9b:93:00:38:d3:6e:4a:11:
         97:ce:81:ee:48:ed:e0:df:9f:75:2f:7f:da:a5:76:48:2c:a7:
         f9:ae:90:80:0b:32:d4:4e:56:86:cb:e3:90:72:da:c4:bd:ef:
         17:0d:b7:43:74:50:3c:ca:c1:ef:b1:f3:fc:c5:63:f9:f7:62:
         fd:1b:8e:0b:19:f7:dd:11:fe:54:fc:10:14:5b:0d:d8:84:5c:
         a6:95:96:92:d1:56:fe:5e:15:0a:b1:fb:8d:ed:b3:59:02:48:
         5c:10:c4:0f:55:b8:26:5e:f8:08:70:a4:77:ce:40:ad:5f:f7:
         59:a9:3e:6c:27:e1:b4:7d:4c:d2:c1:50:32:59:ab:ea:97:f1:
         97:f1:2d:d5:0b:0b:e0:e7:a6:b1:18:42:b3:50:ab:b3:01:28:
         6b:43:7c:07:11:0f:2b:39:aa:58:59:26:26:78:82:37:0e:6d:
         6a:d3:12:31:08:24:5c:39:91:b0:27:f6:87:52:0d:69:58:85:
         fb:ca:cf:3c:e5:9c:c3:ca:51:06:17:f5:64:30:d6:f6:60:44:
         4f:92:8c:a8:2b:a9:86:da:e4:ed:44:3b:f0:1a:d0:9c:7d:c8:
         fc:ca:7e:2c
-----BEGIN CERTIFICATE-----
MIID7zCCAtegAwIBAgICEAAwDQYJKoZIhvcNAQELBQAwgYAxHDAaBgNVBAoTE2Z1
c2lvbmludmVudG9yeS5vcmcxJTAjBgNVBAsTHHRlc3QgY2VydGlmaWNhdGlvbiBh
dXRob3JpdHkxEDAOBgNVBAMUB3Rlc3RfY2ExJzAlBgkqhkiG9w0BCQEWGHRlc3RA
ZnVzaW9uaW52ZW50b3J5Lm9yZzAeFw0yMDExMjYwOTQ5NDdaFw0zMDExMjQwOTQ5
NDdaMIGZMRwwGgYDVQQKExNmdXNpb25pbnZlbnRvcnkub3JnMS0wKwYDVQQLEyRh
bHRlcm5hdGl2ZSB0cnVzdGVkIHRlc3QgY2VydGlmaWNhdGUxITAfBgNVBAMTGHRl
c3QuZnVzaW9uaW52ZW50b3J5Lm9yZzEnMCUGCSqGSIb3DQEJARYYdGVzdEBmdXNp
b25pbnZlbnRvcnkub3JnMIIBIjANBgkqhkiG9w0BAQEFAAOCAQ8AMIIBCgKCAQEA
sFDiRrgFSMhwgNSVkdEVmdeyuUiogllflVhMhPRhscmssIZNbceWRzg+jJppWrTt
45wax6JS8JiGsHF5KWVIogvdwJAXOj6Hcgq7h+fmmaimNIlS6xrZb063O4z+jhE3
PepbclTBgLMjGmqy3qvXHjwN69DFpnBZEpM+MGss7hVoZy1W99xkRsP9GKZTOmqM
0gRzmCzpxiXZLDSb6AwD578IJAYYUgYmVRrqL6tYzqrEcTZf+w9zZWr6RntMK7I+
dnOgMMbqheCkUqKyXDN47VQFaL7PjxZgM0jrfDxHsT/9H0KKDq+faiF52kZ+L8j4
LIfxUTi0DappYfarcS11ewIDAQABo1gwVjAJBgNVHRMEAjAAMB0GA1UdDgQWBBSX
bG7nvNF5KrFx7wnc8V4PKtPaoDAqBgNVHREEIzAhghlvdGhlci5mdXNpb25pbnZl
bnRvcnkub3JnhwR/AAABMA0GCSqGSIb3DQEBCwUAA4IBAQAfxiCQEcqirHekYiZR
+3Izn/SXbB6PoEsqmEwom5MAONNuShGXzoHuSO3g3591L3/apXZILKf5rpCACzLU
TlaGy+OQctrEve8XDbdDdFA8ysHvsfP8xWP592L9G44LGffdEf5U/BAUWw3YhFym
lZaS0Vb+XhUKsfuN7bNZAkhcEMQPVbgmXvgIcKR3zkCtX/dZqT5sJ+G0fUzSwVAy
Wavql/GX8S3VCwvg56axGEKzUKuzAShrQ3wHEQ8rOapYWSYmeII3Dm1q0xIxCCRc
OZGwJ/aHUg1pWIX7ys885ZzDylEGF/VkMNb2YERPkoyoK6mG2uTtRDvwGtCcfcj8
yn4s
-----END CERTIFICATE-----
