Certificate:
    Data:
        Version: 1 (0x0)
        Serial Number: 4100 (0x1004)
    Signature Algorithm: sha1WithRSAEncryption
        Issuer: O=fusioninventory.org, OU=test certification authority, CN=test_ca/emailAddress=test@fusioninventory.org
        Validity
            Not Before: Jun 27 09:25:35 2015 GMT
            Not After : Jun 24 09:25:35 2025 GMT
        Subject: O=fusioninventory.org, OU=untrusted test certificate, CN=localhost/emailAddress=test@fusioninventory.org
        Subject Public Key Info:
            Public Key Algorithm: rsaEncryption
                Public-Key: (2048 bit)
                Modulus:
                    00:d8:a5:38:de:e1:21:aa:fb:f1:a9:cb:f3:28:8e:
                    d3:b8:37:48:11:68:dd:89:c0:d7:3d:a9:67:d2:81:
                    5a:9f:c3:43:cb:a4:e5:ef:01:8a:6a:c6:31:fb:58:
                    6b:41:85:4e:af:14:28:1b:95:b6:f8:c0:b8:ad:2d:
                    55:48:b8:84:8b:ed:8f:96:e2:b7:a8:87:f9:b6:bb:
                    11:56:0f:48:18:c5:35:fe:af:3e:13:89:41:00:2f:
                    9d:46:27:fa:7e:38:92:1a:ae:8b:81:b2:95:8b:16:
                    59:15:d4:67:7a:b4:00:eb:c1:f7:98:85:02:39:f3:
                    9c:ea:98:d5:c7:5c:e0:1b:c0:ee:29:51:cc:10:96:
                    6f:c5:c2:33:0d:f3:f4:fd:64:f6:5c:96:62:11:b5:
                    f5:9d:d8:7a:e2:bb:54:96:3b:65:0f:74:aa:ad:e1:
                    56:46:55:5a:8c:a1:22:44:3b:45:e4:04:90:28:c2:
                    31:35:2b:de:9e:c2:4f:35:2f:05:58:86:c9:9d:5b:
                    74:22:35:58:e1:74:01:9d:03:3b:54:f0:b4:77:d3:
                    1d:a8:bd:61:4b:42:7c:83:ed:3d:28:69:bf:e4:e4:
                    c7:79:b0:d8:a7:37:86:1b:b7:db:61:f8:52:91:97:
                    da:6e:17:44:a7:1e:d4:c5:6d:59:d1:a5:96:ec:d1:
                    30:21
                Exponent: 65537 (0x10001)
        X509v3 extensions:
            X509v3 Basic Constraints: 
                CA:FALSE
            X509v3 Subject Key Identifier: 
                CB:FF:A5:7C:04:CD:B6:6A:A1:75:F3:58:2A:8B:6D:60:D6:30:EA:72
    Signature Algorithm: sha1WithRSAEncryption
         9b:78:8c:f1:d1:cd:89:d5:19:f2:f8:97:df:5c:9e:f0:be:1b:
         02:27:c5:30:a8:65:67:9b:1c:ff:73:27:64:9a:a2:5a:e6:5e:
         10:19:7b:ac:3d:57:3f:d1:c1:83:f6:26:d6:67:25:c8:10:01:
         2a:f5:48:ed:c6:57:9b:c4:d9:10:73:0d:04:85:e4:55:8c:5d:
         3f:44:43:c4:30:24:b8:ab:bc:6e:06:ab:02:fe:03:9e:ec:fa:
         4d:c0:03:22:bb:7d:54:86:96:1c:0e:5a:81:13:a7:b3:50:15:
         71:ef:a4:4c:0e:5f:e5:74:45:6d:77:86:01:71:13:f2:8a:99:
         64:be:8e:6b:66:8b:85:a6:65:cf:4e:70:07:1c:b0:7a:40:fb:
         c6:48:3b:e8:30:46:2d:70:28:82:f1:98:cf:bf:a5:ef:b0:1e:
         52:13:5a:37:7c:62:6a:de:c7:c0:ea:c4:cf:32:e6:c9:56:90:
         a5:60:ff:c9:7b:29:9f:ca:49:9d:ae:66:15:b4:46:a6:c1:48:
         ca:8f:28:2b:ff:e7:c7:1a:db:09:ed:77:43:6c:35:f6:33:63:
         d2:ca:22:db:0e:fb:e1:6e:86:60:0f:44:84:44:81:a8:e0:1e:
         76:3f:ca:3f:1e:2f:7b:41:a0:22:57:70:bb:09:7b:35:33:74:
         e3:38:92:ea
-----BEGIN CERTIFICATE-----
MIIDpTCCAo0CAhAEMA0GCSqGSIb3DQEBBQUAMIGAMRwwGgYDVQQKExNmdXNpb25p
bnZlbnRvcnkub3JnMSUwIwYDVQQLExx0ZXN0IGNlcnRpZmljYXRpb24gYXV0aG9y
aXR5MRAwDgYDVQQDFAd0ZXN0X2NhMScwJQYJKoZIhvcNAQkBFhh0ZXN0QGZ1c2lv
bmludmVudG9yeS5vcmcwHhcNMTUwNjI3MDkyNTM1WhcNMjUwNjI0MDkyNTM1WjCB
gDEcMBoGA1UEChMTZnVzaW9uaW52ZW50b3J5Lm9yZzEjMCEGA1UECxMadW50cnVz
dGVkIHRlc3QgY2VydGlmaWNhdGUxEjAQBgNVBAMTCWxvY2FsaG9zdDEnMCUGCSqG
SIb3DQEJARYYdGVzdEBmdXNpb25pbnZlbnRvcnkub3JnMIIBIjANBgkqhkiG9w0B
AQEFAAOCAQ8AMIIBCgKCAQEA2KU43uEhqvvxqcvzKI7TuDdIEWjdicDXPaln0oFa
n8NDy6Tl7wGKasYx+1hrQYVOrxQoG5W2+MC4rS1VSLiEi+2PluK3qIf5trsRVg9I
GMU1/q8+E4lBAC+dRif6fjiSGq6LgbKVixZZFdRnerQA68H3mIUCOfOc6pjVx1zg
G8DuKVHMEJZvxcIzDfP0/WT2XJZiEbX1ndh64rtUljtlD3SqreFWRlVajKEiRDtF
5ASQKMIxNSvensJPNS8FWIbJnVt0IjVY4XQBnQM7VPC0d9MdqL1hS0J8g+09KGm/
5OTHebDYpzeGG7fbYfhSkZfabhdEpx7UxW1Z0aWW7NEwIQIDAQABoywwKjAJBgNV
HRMEAjAAMB0GA1UdDgQWBBTL/6V8BM22aqF181gqi21g1jDqcjANBgkqhkiG9w0B
AQUFAAOCAQEAm3iM8dHNidUZ8viX31ye8L4bAifFMKhlZ5sc/3MnZJqiWuZeEBl7
rD1XP9HBg/Ym1mclyBABKvVI7cZXm8TZEHMNBIXkVYxdP0RDxDAkuKu8bgarAv4D
nuz6TcADIrt9VIaWHA5agROns1AVce+kTA5f5XRFbXeGAXET8oqZZL6Oa2aLhaZl
z05wBxywekD7xkg76DBGLXAogvGYz7+l77AeUhNaN3xiat7HwOrEzzLmyVaQpWD/
yXspn8pJna5mFbRGpsFIyo8oK//nxxrbCe13Q2w19jNj0soi2w774W6GYA9EhESB
qOAedj/KPx4ve0GgIldwuwl7NTN04ziS6g==
-----END CERTIFICATE-----
