Certificate:
    Data:
        Version: 3 (0x2)
        Serial Number: 4099 (0x1003)
        Signature Algorithm: sha256WithRSAEncryption
        Issuer: O=fusioninventory.org, OU=test certification authority, CN=test_ca/emailAddress=test@fusioninventory.org
        Validity
            Not Before: Nov 26 09:49:47 2020 GMT
            Not After : Nov 24 09:49:47 2030 GMT
        Subject: O=fusioninventory.org, OU=untrusted test certificate, CN=localhost/emailAddress=test@fusioninventory.org
        Subject Public Key Info:
            Public Key Algorithm: rsaEncryption
                RSA Public-Key: (2048 bit)
                Modulus:
                    00:ac:62:ad:ab:48:af:b4:14:d9:2f:55:1f:5e:ec:
                    87:91:79:24:8f:7a:2e:45:a3:9b:f1:b2:d7:84:33:
                    85:42:7b:6e:1a:5a:8e:f9:9a:0b:23:aa:d4:5c:f2:
                    d9:1b:8e:9f:d5:30:8e:45:94:c5:1b:38:4b:e0:36:
                    99:ea:56:8c:c2:6f:0d:7a:c1:b4:b2:ff:41:e9:fe:
                    c6:21:e2:37:8f:a0:ce:92:82:31:e4:5e:87:60:e5:
                    31:51:13:f6:d3:c0:23:b2:4c:67:c4:ee:c6:95:36:
                    81:86:a0:ce:d8:a5:28:a9:52:bd:7a:c6:14:a8:2a:
                    67:f0:73:db:63:6c:2a:e1:64:78:4a:8f:d5:ca:d4:
                    32:bf:52:bb:dd:fe:9b:17:b5:4f:73:2f:8a:29:f8:
                    f2:b6:f4:39:fc:49:98:02:6a:44:04:32:7e:a3:57:
                    f1:bf:27:a3:75:91:fd:b0:c0:8d:7a:27:a3:8c:5f:
                    c3:69:cd:ba:08:4e:26:bc:ec:8b:55:d0:7a:1b:e1:
                    95:a9:f2:f2:b1:49:c2:26:f4:63:6b:1f:37:46:9c:
                    6f:83:cc:28:da:3c:7d:a6:d4:a0:07:49:1f:04:70:
                    94:d2:e7:d1:80:21:5a:39:bf:c3:fc:be:95:58:bd:
                    66:93:4f:c7:53:23:c4:fa:b2:6c:b1:d1:ff:02:80:
                    62:b3
                Exponent: 65537 (0x10001)
        X509v3 extensions:
            X509v3 Basic Constraints: 
                CA:FALSE
            X509v3 Subject Key Identifier: 
                96:CD:47:26:74:DE:18:1E:F6:19:59:D6:B3:B7:3A:94:7C:9F:5F:3E
    Signature Algorithm: sha256WithRSAEncryption
         24:ef:cb:47:3f:e9:22:b1:a2:8e:fa:f9:ff:0e:cf:c9:de:67:
         14:4a:21:84:f5:08:a0:d1:93:b8:36:af:4b:09:34:ec:4f:52:
         89:86:67:0b:27:d0:56:80:e0:67:e1:51:fe:15:25:90:fd:41:
         42:ac:18:1a:6c:56:bc:67:bb:96:4f:dc:8d:f5:1d:88:56:33:
         3e:4b:33:d1:30:16:29:8f:90:5f:82:16:5d:58:eb:17:04:2d:
         4f:59:84:39:e5:15:52:2d:9b:62:ab:9a:e4:2a:13:95:8e:db:
         a4:be:77:da:37:6f:58:d5:9f:16:09:b1:81:ed:09:01:96:79:
         c8:49:8a:0e:6f:aa:93:54:d0:fe:79:63:09:8c:fe:47:76:bb:
         76:33:87:5a:47:e6:b6:6c:42:21:cb:31:51:af:99:c9:70:3e:
         8c:e9:38:32:aa:e2:33:a4:37:c2:00:f3:7f:ac:5c:8a:e3:fd:
         71:66:73:9b:9b:05:92:51:96:8b:a0:bd:4a:fd:36:38:89:df:
         85:f4:6d:05:be:12:c5:7a:4a:c6:de:9f:6c:6b:64:ea:d8:8a:
         df:de:31:76:ca:09:8b:7c:f3:da:d1:0f:d8:75:4f:12:38:c6:
         94:78:b8:c2:15:8a:a7:9d:20:b8:0e:4e:ef:e9:6f:3a:08:d9:
         7b:75:23:d9
-----BEGIN CERTIFICATE-----
MIIDqjCCApKgAwIBAgICEAMwDQYJKoZIhvcNAQELBQAwgYAxHDAaBgNVBAoTE2Z1
c2lvbmludmVudG9yeS5vcmcxJTAjBgNVBAsTHHRlc3QgY2VydGlmaWNhdGlvbiBh
dXRob3JpdHkxEDAOBgNVBAMUB3Rlc3RfY2ExJzAlBgkqhkiG9w0BCQEWGHRlc3RA
ZnVzaW9uaW52ZW50b3J5Lm9yZzAeFw0yMDExMjYwOTQ5NDdaFw0zMDExMjQwOTQ5
NDdaMIGAMRwwGgYDVQQKDBNmdXNpb25pbnZlbnRvcnkub3JnMSMwIQYDVQQLDBp1
bnRydXN0ZWQgdGVzdCBjZXJ0aWZpY2F0ZTESMBAGA1UEAwwJbG9jYWxob3N0MScw
JQYJKoZIhvcNAQkBFhh0ZXN0QGZ1c2lvbmludmVudG9yeS5vcmcwggEiMA0GCSqG
SIb3DQEBAQUAA4IBDwAwggEKAoIBAQCsYq2rSK+0FNkvVR9e7IeReSSPei5Fo5vx
steEM4VCe24aWo75mgsjqtRc8tkbjp/VMI5FlMUbOEvgNpnqVozCbw16wbSy/0Hp
/sYh4jePoM6SgjHkXodg5TFRE/bTwCOyTGfE7saVNoGGoM7YpSipUr16xhSoKmfw
c9tjbCrhZHhKj9XK1DK/Urvd/psXtU9zL4op+PK29Dn8SZgCakQEMn6jV/G/J6N1
kf2wwI16J6OMX8NpzboITia87ItV0Hob4ZWp8vKxScIm9GNrHzdGnG+DzCjaPH2m
1KAHSR8EcJTS59GAIVo5v8P8vpVYvWaTT8dTI8T6smyx0f8CgGKzAgMBAAGjLDAq
MAkGA1UdEwQCMAAwHQYDVR0OBBYEFJbNRyZ03hge9hlZ1rO3OpR8n18+MA0GCSqG
SIb3DQEBCwUAA4IBAQAk78tHP+kisaKO+vn/Ds/J3mcUSiGE9Qig0ZO4Nq9LCTTs
T1KJhmcLJ9BWgOBn4VH+FSWQ/UFCrBgabFa8Z7uWT9yN9R2IVjM+SzPRMBYpj5Bf
ghZdWOsXBC1PWYQ55RVSLZtiq5rkKhOVjtukvnfaN29Y1Z8WCbGB7QkBlnnISYoO
b6qTVND+eWMJjP5Hdrt2M4daR+a2bEIhyzFRr5nJcD6M6TgyquIzpDfCAPN/rFyK
4/1xZnObmwWSUZaLoL1K/TY4id+F9G0FvhLFekrG3p9sa2Tq2Irf3jF2ygmLfPPa
0Q/YdU8SOMaUeLjCFYqnnSC4Dk7v6W86CNl7dSPZ
-----END CERTIFICATE-----
