Certificate:
    Data:
        Version: 3 (0x2)
        Serial Number: 4097 (0x1001)
        Signature Algorithm: sha256WithRSAEncryption
        Issuer: O=fusioninventory.org, OU=test certification authority, CN=test_ca/emailAddress=test@fusioninventory.org
        Validity
            Not Before: Nov 26 09:49:47 2020 GMT
            Not After : Nov 24 09:49:47 2030 GMT
        Subject: O=fusioninventory.org, OU=trusted test certificate, CN=127.0.0.1/emailAddress=test@fusioninventory.org
        Subject Public Key Info:
            Public Key Algorithm: rsaEncryption
                RSA Public-Key: (2048 bit)
                Modulus:
                    00:ae:ba:e8:1e:cb:1c:74:69:22:3d:d2:62:a2:ab:
                    0a:d6:32:30:52:0f:0e:3f:47:79:54:d3:af:f0:c1:
                    ba:bc:a4:aa:47:df:98:11:67:95:1a:3a:33:b4:1b:
                    56:cc:b3:c4:bb:96:3d:84:93:32:75:92:b4:94:9b:
                    73:36:9b:5d:5a:63:c9:f8:b5:36:f6:89:a6:5a:1a:
                    88:6f:8d:d1:34:1c:d8:93:df:c8:76:c6:42:1c:e2:
                    aa:69:92:83:62:b2:20:31:a7:3d:66:d9:81:da:33:
                    19:19:f5:fd:19:e6:04:80:80:3c:ce:7b:23:43:68:
                    10:ba:76:d5:be:90:db:80:b7:ea:4b:a3:e2:fe:cd:
                    3c:53:9b:34:a7:c5:5e:07:98:74:63:ce:1e:31:29:
                    39:5c:db:bb:8b:3f:9b:ef:dd:ed:71:6e:6f:90:e2:
                    2e:d8:f8:d4:b0:20:86:07:6d:41:c4:da:bb:7a:2b:
                    0b:4f:0d:bb:29:bf:dd:ae:7b:7c:37:39:49:e6:5e:
                    29:f9:2d:34:97:7b:25:fd:35:49:b8:01:5e:41:4d:
                    07:ea:e7:43:d8:1b:7b:86:a9:47:df:b5:fd:40:f4:
                    15:e4:f4:71:d1:07:d6:0f:54:28:b6:20:91:da:cf:
                    23:c8:81:be:31:06:14:c1:53:75:fa:1f:a0:a5:23:
                    b0:35
                Exponent: 65537 (0x10001)
        X509v3 extensions:
            X509v3 Basic Constraints: 
                CA:FALSE
            X509v3 Subject Key Identifier: 
                95:18:A3:5E:57:8B:32:4B:4A:3F:A3:76:49:B9:2F:ED:74:2F:65:09
    Signature Algorithm: sha256WithRSAEncryption
         74:2d:77:87:cb:80:57:f8:3f:d7:f4:a4:c2:6d:8f:63:0a:22:
         25:60:bc:55:d6:43:1f:81:47:a9:93:ee:64:81:af:28:87:c8:
         e6:9b:20:b5:b1:46:36:50:ff:fc:9c:c0:57:fd:da:ea:5a:67:
         ab:89:9c:86:17:ad:9e:a7:4b:47:48:73:ba:d5:b3:2f:e3:27:
         82:50:e7:51:66:8c:7a:a8:6a:90:fd:79:e4:b3:2a:18:f5:dc:
         56:55:05:2c:48:84:a0:70:ab:7f:0c:da:0a:9e:06:90:94:7d:
         44:9c:e6:e9:46:0e:48:31:6a:73:fe:87:df:3a:b5:d8:72:0f:
         8b:6b:97:5e:99:ea:a1:eb:d8:d8:18:7a:fb:4c:e6:50:82:f1:
         00:db:4c:64:22:17:3e:ce:c8:ef:b1:26:bc:4d:35:e3:b2:83:
         55:a4:2d:29:ce:2c:62:e1:ce:01:7d:7c:60:fa:f6:ba:78:81:
         93:87:e2:a7:ba:98:d7:17:41:65:1b:13:c3:b1:c4:45:f6:c5:
         2d:0d:c6:6d:b8:38:ac:6d:f0:db:1a:d3:d8:47:12:bf:f1:7e:
         8c:98:3d:05:df:26:95:cd:93:c9:40:53:4c:b1:a7:3b:2a:57:
         5e:36:0a:07:9d:49:9d:b5:77:1d:2a:c9:74:58:59:55:a8:64:
         7b:38:ab:f5
-----BEGIN CERTIFICATE-----
MIIDpzCCAo+gAwIBAgICEAEwDQYJKoZIhvcNAQELBQAwgYAxHDAaBgNVBAoTE2Z1
c2lvbmludmVudG9yeS5vcmcxJTAjBgNVBAsTHHRlc3QgY2VydGlmaWNhdGlvbiBh
dXRob3JpdHkxEDAOBgNVBAMUB3Rlc3RfY2ExJzAlBgkqhkiG9w0BCQEWGHRlc3RA
ZnVzaW9uaW52ZW50b3J5Lm9yZzAeFw0yMDExMjYwOTQ5NDdaFw0zMDExMjQwOTQ5
NDdaMH4xHDAaBgNVBAoTE2Z1c2lvbmludmVudG9yeS5vcmcxITAfBgNVBAsTGHRy
dXN0ZWQgdGVzdCBjZXJ0aWZpY2F0ZTESMBAGA1UEAxMJMTI3LjAuMC4xMScwJQYJ
KoZIhvcNAQkBFhh0ZXN0QGZ1c2lvbmludmVudG9yeS5vcmcwggEiMA0GCSqGSIb3
DQEBAQUAA4IBDwAwggEKAoIBAQCuuugeyxx0aSI90mKiqwrWMjBSDw4/R3lU06/w
wbq8pKpH35gRZ5UaOjO0G1bMs8S7lj2EkzJ1krSUm3M2m11aY8n4tTb2iaZaGohv
jdE0HNiT38h2xkIc4qppkoNisiAxpz1m2YHaMxkZ9f0Z5gSAgDzOeyNDaBC6dtW+
kNuAt+pLo+L+zTxTmzSnxV4HmHRjzh4xKTlc27uLP5vv3e1xbm+Q4i7Y+NSwIIYH
bUHE2rt6KwtPDbspv92ue3w3OUnmXin5LTSXeyX9NUm4AV5BTQfq50PYG3uGqUff
tf1A9BXk9HHRB9YPVCi2IJHazyPIgb4xBhTBU3X6H6ClI7A1AgMBAAGjLDAqMAkG
A1UdEwQCMAAwHQYDVR0OBBYEFJUYo15XizJLSj+jdkm5L+10L2UJMA0GCSqGSIb3
DQEBCwUAA4IBAQB0LXeHy4BX+D/X9KTCbY9jCiIlYLxV1kMfgUepk+5kga8oh8jm
myC1sUY2UP/8nMBX/drqWmeriZyGF62ep0tHSHO61bMv4yeCUOdRZox6qGqQ/Xnk
syoY9dxWVQUsSISgcKt/DNoKngaQlH1EnObpRg5IMWpz/offOrXYcg+La5demeqh
69jYGHr7TOZQgvEA20xkIhc+zsjvsSa8TTXjsoNVpC0pzixi4c4BfXxg+va6eIGT
h+KnupjXF0FlGxPDscRF9sUtDcZtuDisbfDbGtPYRxK/8X6MmD0F3yaVzZPJQFNM
sac7KldeNgoHnUmdtXcdKsl0WFlVqGR7OKv1
-----END CERTIFICATE-----
