Certificate:
    Data:
        Version: 1 (0x0)
        Serial Number: 1 (0x1)
    Signature Algorithm: md5WithRSAEncryption
        Issuer: O=fusioninventory.org, OU=test certification authority, CN=test_ca/emailAddress=test@fusioninventory.org
        Validity
            Not Before: Aug  1 15:43:22 2012 GMT
            Not After : Jul 30 15:43:22 2022 GMT
        Subject: O=fusioninventory.org, OU=trusted test certificate, CN=localhost/emailAddress=test@fusioninventory.org
        Subject Public Key Info:
            Public Key Algorithm: rsaEncryption
                Public-Key: (2048 bit)
                Modulus:
                    00:c7:15:c2:3f:2d:59:57:04:a8:0f:e9:2d:49:59:
                    3a:c6:5b:0e:36:c9:b5:8c:e7:7d:5e:2c:9f:7f:d9:
                    66:41:71:4f:38:69:de:fb:62:ae:7f:3c:41:82:99:
                    78:6c:fe:5c:ed:82:0d:a0:27:43:bd:6f:32:36:be:
                    54:87:ae:a2:1a:21:d5:b3:58:cc:ff:63:65:ba:f2:
                    10:5b:03:c8:51:77:37:20:a9:21:6d:d0:43:fc:89:
                    9b:29:49:14:aa:46:9f:cf:0b:74:7a:c0:ea:af:b4:
                    eb:25:e7:b5:d4:35:57:65:ee:f5:db:a2:c3:94:5f:
                    cd:01:db:5a:14:4c:9c:a4:22:51:94:14:8c:8c:54:
                    fc:a5:a9:ca:93:09:5f:eb:e4:37:23:fb:1e:87:b4:
                    a5:8c:85:df:3e:16:78:a4:84:29:e0:3f:b8:db:c8:
                    b9:fd:2e:d2:b5:83:c4:dc:f6:8f:e4:80:2e:36:57:
                    f2:15:8c:bc:d1:96:ae:c6:04:37:03:6d:cc:a6:5c:
                    00:8f:d8:48:4e:49:0e:62:cf:55:68:6c:30:37:8f:
                    9e:30:ae:5c:5c:d9:77:45:35:49:68:08:65:f0:61:
                    6a:77:3c:9e:e1:e0:73:74:a8:5d:69:44:18:cf:d3:
                    63:17:76:80:e9:5f:63:33:dc:0e:cc:cf:a7:c6:be:
                    29:81
                Exponent: 65537 (0x10001)
    Signature Algorithm: md5WithRSAEncryption
         45:a9:47:c1:9c:80:66:7c:47:92:e5:87:d5:69:d1:be:91:19:
         ca:cd:1f:16:c9:7b:d8:45:7b:6b:f8:06:fb:d4:83:93:54:65:
         15:6f:0e:fb:d9:2e:1d:08:c5:37:d2:83:56:ab:6a:4e:24:27:
         a5:e6:79:84:30:62:3f:16:b5:c1:13:83:6b:8e:04:d3:ac:f9:
         13:ec:bf:a5:e3:d7:89:c9:a6:17:bd:32:d1:0d:fc:c7:e0:c1:
         56:88:4c:f9:7f:ad:f9:10:21:1e:96:a9:43:77:00:68:61:8c:
         ae:84:c8:20:30:83:52:c4:8a:b2:0c:9c:e6:6b:1e:5c:6a:5a:
         3c:33:43:cd:c8:48:a2:58:9f:ad:19:92:e9:8d:85:37:fe:c7:
         e7:23:d9:4d:47:18:15:80:a4:5f:f5:f6:03:ae:f2:89:a0:61:
         a5:cf:6c:24:a8:8c:1b:01:55:87:7e:a1:06:ce:5b:5e:3a:07:
         c2:32:cf:af:10:71:46:ab:40:80:4e:e3:44:3f:ef:9b:5a:f7:
         f7:fd:39:9e:5d:40:98:44:8b:d0:1d:ac:d3:c0:b7:8b:48:04:
         db:4e:85:15:6d:f9:9a:6e:1e:3e:f6:fc:5c:a8:b1:99:3c:4c:
         5d:0b:97:87:45:ff:98:fd:9a:f8:47:bf:51:49:96:2b:0b:7b:
         e8:9c:df:40
-----BEGIN CERTIFICATE-----
MIIDczCCAlsCAQEwDQYJKoZIhvcNAQEEBQAwgYAxHDAaBgNVBAoTE2Z1c2lvbmlu
dmVudG9yeS5vcmcxJTAjBgNVBAsTHHRlc3QgY2VydGlmaWNhdGlvbiBhdXRob3Jp
dHkxEDAOBgNVBAMUB3Rlc3RfY2ExJzAlBgkqhkiG9w0BCQEWGHRlc3RAZnVzaW9u
aW52ZW50b3J5Lm9yZzAeFw0xMjA4MDExNTQzMjJaFw0yMjA3MzAxNTQzMjJaMH4x
HDAaBgNVBAoTE2Z1c2lvbmludmVudG9yeS5vcmcxITAfBgNVBAsTGHRydXN0ZWQg
dGVzdCBjZXJ0aWZpY2F0ZTESMBAGA1UEAxMJbG9jYWxob3N0MScwJQYJKoZIhvcN
AQkBFhh0ZXN0QGZ1c2lvbmludmVudG9yeS5vcmcwggEiMA0GCSqGSIb3DQEBAQUA
A4IBDwAwggEKAoIBAQDHFcI/LVlXBKgP6S1JWTrGWw42ybWM531eLJ9/2WZBcU84
ad77Yq5/PEGCmXhs/lztgg2gJ0O9bzI2vlSHrqIaIdWzWMz/Y2W68hBbA8hRdzcg
qSFt0EP8iZspSRSqRp/PC3R6wOqvtOsl57XUNVdl7vXbosOUX80B21oUTJykIlGU
FIyMVPylqcqTCV/r5Dcj+x6HtKWMhd8+FnikhCngP7jbyLn9LtK1g8Tc9o/kgC42
V/IVjLzRlq7GBDcDbcymXACP2EhOSQ5iz1VobDA3j54wrlxc2XdFNUloCGXwYWp3
PJ7h4HN0qF1pRBjP02MXdoDpX2Mz3A7Mz6fGvimBAgMBAAEwDQYJKoZIhvcNAQEE
BQADggEBAEWpR8GcgGZ8R5Llh9Vp0b6RGcrNHxbJe9hFe2v4BvvUg5NUZRVvDvvZ
Lh0IxTfSg1arak4kJ6XmeYQwYj8WtcETg2uOBNOs+RPsv6Xj14nJphe9MtEN/Mfg
wVaITPl/rfkQIR6WqUN3AGhhjK6EyCAwg1LEirIMnOZrHlxqWjwzQ83ISKJYn60Z
kumNhTf+x+cj2U1HGBWApF/19gOu8omgYaXPbCSojBsBVYd+oQbOW146B8Iyz68Q
cUarQIBO40Q/75ta9/f9OZ5dQJhEi9AdrNPAt4tIBNtOhRVt+ZpuHj72/FyosZk8
TF0Ll4dF/5j9mvhHv1FJlisLe+ic30A=
-----END CERTIFICATE-----
