Certificate:
    Data:
        Version: 1 (0x0)
        Serial Number: 4097 (0x1001)
    Signature Algorithm: sha1WithRSAEncryption
        Issuer: O=fusioninventory.org, OU=test certification authority, CN=test_ca/emailAddress=test@fusioninventory.org
        Validity
            Not Before: Jun 27 09:25:35 2015 GMT
            Not After : Jun 24 09:25:35 2025 GMT
        Subject: O=fusioninventory.org, OU=trusted test certificate, CN=127.0.0.1/emailAddress=test@fusioninventory.org
        Subject Public Key Info:
            Public Key Algorithm: rsaEncryption
                Public-Key: (2048 bit)
                Modulus:
                    00:9a:e1:4c:07:fd:e2:5e:bd:81:d3:a6:3d:2a:58:
                    95:f1:3f:b0:09:82:67:2e:e6:be:a4:c8:3a:11:a6:
                    f8:96:31:d7:f1:dc:06:e6:71:50:3e:38:af:37:a3:
                    29:3d:67:dc:09:60:89:c8:bf:ff:23:c5:c6:86:8b:
                    cb:6c:d6:95:d5:2e:5b:11:5e:ab:9b:c3:57:3e:03:
                    32:a8:e8:19:4d:02:cb:e9:a3:11:87:a6:d9:e6:ce:
                    8d:c4:6e:61:91:78:6c:67:b9:29:7e:3c:69:6a:42:
                    34:ae:da:c4:c7:ec:2c:39:af:97:3e:67:a1:2b:ea:
                    c4:aa:5a:db:a5:d6:61:3c:cc:ca:2e:25:84:da:9c:
                    64:82:1f:4b:8e:07:58:62:6e:8a:cf:4d:4b:5a:83:
                    3a:6c:01:82:04:aa:8a:e2:40:4f:f5:37:2e:34:8b:
                    fa:b7:bc:27:32:dc:9c:65:ad:e6:dd:58:81:ff:8e:
                    56:47:c5:4a:35:81:7f:6b:ef:37:ec:2c:fe:9f:78:
                    b3:e5:5f:2f:39:5e:58:a9:6a:32:47:21:2f:7b:e5:
                    4c:dd:5b:9b:5d:29:50:bb:55:36:79:10:00:e0:55:
                    c7:a3:2d:27:9b:28:8f:87:94:38:e9:84:02:80:bb:
                    e6:29:3e:34:71:e4:33:e9:db:64:a6:c2:47:72:22:
                    b2:a1
                Exponent: 65537 (0x10001)
        X509v3 extensions:
            X509v3 Basic Constraints: 
                CA:FALSE
            X509v3 Subject Key Identifier: 
                7B:D9:83:B0:E7:36:54:10:36:5D:84:7D:5C:26:15:E0:E4:73:40:DB
    Signature Algorithm: sha1WithRSAEncryption
         7c:5c:89:86:1f:97:ea:7e:f2:b2:6a:b0:af:b9:42:8e:5f:b4:
         e5:2a:16:18:db:e6:c5:96:98:58:16:ad:c9:70:e7:ac:40:23:
         74:5c:19:00:74:a5:57:bf:72:49:fc:89:2f:2c:d7:43:5f:2e:
         ce:89:ce:ef:83:f0:79:8d:9e:db:c9:5c:1a:60:d3:72:0d:e2:
         e4:0b:a9:85:60:67:20:94:ed:6f:3b:e3:43:7c:07:78:bf:de:
         4a:5d:35:c6:a7:be:a8:b8:6d:e2:34:8f:80:29:5c:fe:a2:06:
         c2:19:3d:78:46:17:65:ea:21:c7:3a:e1:7e:0d:bb:67:3e:22:
         22:03:8c:01:84:57:64:6f:85:61:dd:af:2e:78:42:41:db:6d:
         be:45:76:c4:c7:09:11:4c:ba:a5:e2:13:1e:60:0c:08:29:aa:
         d8:74:f1:a9:04:45:4f:25:22:48:0d:ed:0e:ad:b5:af:22:b7:
         06:43:90:5b:be:ad:8f:48:35:ab:49:ef:ad:32:e8:c8:ee:63:
         f3:36:ce:23:a4:23:9f:bb:ba:c8:4c:6d:25:82:7a:2f:cd:a4:
         1a:fc:fa:2a:5e:d9:27:3f:b0:54:49:cb:df:31:77:6a:d9:ae:
         e7:c9:18:5b:4c:a3:95:6c:f0:f9:91:31:23:a1:b6:01:0c:12:
         f7:bb:32:96
-----BEGIN CERTIFICATE-----
MIIDojCCAooCAhABMA0GCSqGSIb3DQEBBQUAMIGAMRwwGgYDVQQKExNmdXNpb25p
bnZlbnRvcnkub3JnMSUwIwYDVQQLExx0ZXN0IGNlcnRpZmljYXRpb24gYXV0aG9y
aXR5MRAwDgYDVQQDFAd0ZXN0X2NhMScwJQYJKoZIhvcNAQkBFhh0ZXN0QGZ1c2lv
bmludmVudG9yeS5vcmcwHhcNMTUwNjI3MDkyNTM1WhcNMjUwNjI0MDkyNTM1WjB+
MRwwGgYDVQQKExNmdXNpb25pbnZlbnRvcnkub3JnMSEwHwYDVQQLExh0cnVzdGVk
IHRlc3QgY2VydGlmaWNhdGUxEjAQBgNVBAMTCTEyNy4wLjAuMTEnMCUGCSqGSIb3
DQEJARYYdGVzdEBmdXNpb25pbnZlbnRvcnkub3JnMIIBIjANBgkqhkiG9w0BAQEF
AAOCAQ8AMIIBCgKCAQEAmuFMB/3iXr2B06Y9KliV8T+wCYJnLua+pMg6Eab4ljHX
8dwG5nFQPjivN6MpPWfcCWCJyL//I8XGhovLbNaV1S5bEV6rm8NXPgMyqOgZTQLL
6aMRh6bZ5s6NxG5hkXhsZ7kpfjxpakI0rtrEx+wsOa+XPmehK+rEqlrbpdZhPMzK
LiWE2pxkgh9LjgdYYm6Kz01LWoM6bAGCBKqK4kBP9TcuNIv6t7wnMtycZa3m3ViB
/45WR8VKNYF/a+837Cz+n3iz5V8vOV5YqWoyRyEve+VM3VubXSlQu1U2eRAA4FXH
oy0nmyiPh5Q46YQCgLvmKT40ceQz6dtkpsJHciKyoQIDAQABoywwKjAJBgNVHRME
AjAAMB0GA1UdDgQWBBR72YOw5zZUEDZdhH1cJhXg5HNA2zANBgkqhkiG9w0BAQUF
AAOCAQEAfFyJhh+X6n7ysmqwr7lCjl+05SoWGNvmxZaYWBatyXDnrEAjdFwZAHSl
V79ySfyJLyzXQ18uzonO74PweY2e28lcGmDTcg3i5AuphWBnIJTtbzvjQ3wHeL/e
Sl01xqe+qLht4jSPgClc/qIGwhk9eEYXZeohxzrhfg27Zz4iIgOMAYRXZG+FYd2v
LnhCQdttvkV2xMcJEUy6peITHmAMCCmq2HTxqQRFTyUiSA3tDq21ryK3BkOQW76t
j0g1q0nvrTLoyO5j8zbOI6Qjn7u6yExtJYJ6L82kGvz6Kl7ZJz+wVEnL3zF3atmu
58kYW0yjlWzw+ZExI6G2AQwS97sylg==
-----END CERTIFICATE-----
