Certificate:
    Data:
        Version: 1 (0x0)
        Serial Number: 1 (0x1)
    Signature Algorithm: md5WithRSAEncryption
        Issuer: O=fusioninventory.org, OU=test certification authority, CN=test_ca/emailAddress=test@fusioninventory.org
        Validity
            Not Before: Jan  6 22:42:54 2015 GMT
            Not After : Jan  3 22:42:54 2025 GMT
        Subject: O=fusioninventory.org, OU=trusted test certificate, CN=127.0.0.1/emailAddress=test@fusioninventory.org
        Subject Public Key Info:
            Public Key Algorithm: rsaEncryption
                Public-Key: (2048 bit)
                Modulus:
                    00:b4:3c:89:47:db:a2:4f:7e:43:d0:9a:dc:79:67:
                    af:12:0c:df:15:ac:21:d3:ba:a6:61:ab:0b:a1:2e:
                    65:62:ac:3c:67:94:41:69:cd:c3:cf:41:b5:e6:b0:
                    04:d1:dd:8d:a8:b3:bc:35:ff:f7:03:b6:ab:fe:1f:
                    90:98:bc:92:86:a4:e1:9d:b1:d0:89:dd:bf:d5:c6:
                    24:d8:ec:7c:f0:f9:58:25:fa:da:4b:ef:a7:9a:8a:
                    3f:2b:3e:45:89:b0:f8:14:40:89:69:68:86:56:6b:
                    e0:5f:ea:ca:d9:59:48:c6:e7:3f:92:8c:83:fe:8a:
                    2c:4e:78:b2:91:3c:7c:93:5f:94:1d:34:e5:96:b9:
                    e5:e5:b1:e5:cf:c9:b3:03:c3:7f:29:81:ce:48:4e:
                    63:a6:c8:a9:3a:ce:38:d4:77:1c:b8:a5:6e:be:e0:
                    6e:b3:e3:40:a9:07:27:fe:50:06:8e:24:44:d7:10:
                    e2:59:04:0c:8b:36:af:69:be:a3:ff:82:37:5d:b0:
                    85:83:d5:49:7c:99:5d:67:56:9a:7f:5b:d4:34:d6:
                    c0:49:3d:ff:39:22:ed:32:62:1c:dd:c1:97:2e:22:
                    6a:52:f1:1f:d6:43:26:d9:0f:b5:93:ef:43:fb:0f:
                    6a:bb:94:ce:ef:64:51:ae:05:c7:62:93:12:e5:a4:
                    70:91
                Exponent: 65537 (0x10001)
        X509v3 extensions:
            X509v3 Basic Constraints: 
                CA:FALSE
            X509v3 Subject Key Identifier: 
                46:6F:C2:DE:E5:9A:66:A8:15:C2:72:D2:12:E8:4B:C7:7F:1D:A7:FA
    Signature Algorithm: md5WithRSAEncryption
         48:17:95:a5:a6:b6:bf:5f:80:c4:33:94:11:91:04:bd:74:ad:
         17:94:54:a4:7e:8b:cc:cf:d9:7e:50:97:7a:bd:ff:21:cc:dd:
         30:26:60:83:41:88:b0:57:1d:40:ed:88:dd:fb:22:16:1e:6d:
         e9:4f:ba:68:7b:82:32:72:39:69:07:e0:bf:6c:44:1e:5e:3f:
         10:d7:f9:d3:ee:19:8c:32:80:dd:0c:45:0b:29:83:84:72:5e:
         08:35:39:92:da:58:c3:36:97:47:62:66:2b:7d:77:46:c3:3f:
         00:ba:5f:17:98:32:42:26:ab:25:a0:3e:4b:37:04:10:d0:a2:
         08:f5:9c:77:30:3a:1c:f9:09:80:75:ce:6c:b3:da:ac:3a:77:
         17:c6:61:08:ea:83:62:58:f8:ca:16:fd:ca:c9:a9:d8:a9:4b:
         3c:03:73:0c:96:de:0d:f3:63:9d:53:a3:24:30:28:44:63:e4:
         25:87:05:05:cd:4f:6b:4f:05:42:ed:e4:7f:b8:cb:6a:79:52:
         79:80:2b:30:67:1a:81:a5:eb:c2:b0:36:bd:7e:be:4f:58:36:
         fb:a5:11:7e:fa:26:b6:e7:33:58:5c:c7:db:a2:02:3d:7f:fd:
         eb:1c:ce:7b:ee:73:79:11:28:d3:d0:33:46:a2:11:9d:b1:b6:
         df:01:31:73
-----BEGIN CERTIFICATE-----
MIIDoTCCAokCAQEwDQYJKoZIhvcNAQEEBQAwgYAxHDAaBgNVBAoTE2Z1c2lvbmlu
dmVudG9yeS5vcmcxJTAjBgNVBAsTHHRlc3QgY2VydGlmaWNhdGlvbiBhdXRob3Jp
dHkxEDAOBgNVBAMUB3Rlc3RfY2ExJzAlBgkqhkiG9w0BCQEWGHRlc3RAZnVzaW9u
aW52ZW50b3J5Lm9yZzAeFw0xNTAxMDYyMjQyNTRaFw0yNTAxMDMyMjQyNTRaMH4x
HDAaBgNVBAoTE2Z1c2lvbmludmVudG9yeS5vcmcxITAfBgNVBAsTGHRydXN0ZWQg
dGVzdCBjZXJ0aWZpY2F0ZTESMBAGA1UEAxMJMTI3LjAuMC4xMScwJQYJKoZIhvcN
AQkBFhh0ZXN0QGZ1c2lvbmludmVudG9yeS5vcmcwggEiMA0GCSqGSIb3DQEBAQUA
A4IBDwAwggEKAoIBAQC0PIlH26JPfkPQmtx5Z68SDN8VrCHTuqZhqwuhLmVirDxn
lEFpzcPPQbXmsATR3Y2os7w1//cDtqv+H5CYvJKGpOGdsdCJ3b/VxiTY7Hzw+Vgl
+tpL76eaij8rPkWJsPgUQIlpaIZWa+Bf6srZWUjG5z+SjIP+iixOeLKRPHyTX5Qd
NOWWueXlseXPybMDw38pgc5ITmOmyKk6zjjUdxy4pW6+4G6z40CpByf+UAaOJETX
EOJZBAyLNq9pvqP/gjddsIWD1Ul8mV1nVpp/W9Q01sBJPf85Iu0yYhzdwZcuImpS
8R/WQybZD7WT70P7D2q7lM7vZFGuBcdikxLlpHCRAgMBAAGjLDAqMAkGA1UdEwQC
MAAwHQYDVR0OBBYEFEZvwt7lmmaoFcJy0hLoS8d/Haf6MA0GCSqGSIb3DQEBBAUA
A4IBAQBIF5Wlpra/X4DEM5QRkQS9dK0XlFSkfovMz9l+UJd6vf8hzN0wJmCDQYiw
Vx1A7Yjd+yIWHm3pT7poe4IycjlpB+C/bEQeXj8Q1/nT7hmMMoDdDEULKYOEcl4I
NTmS2ljDNpdHYmYrfXdGwz8Aul8XmDJCJqsloD5LNwQQ0KII9Zx3MDoc+QmAdc5s
s9qsOncXxmEI6oNiWPjKFv3KyanYqUs8A3MMlt4N82OdU6MkMChEY+QlhwUFzU9r
TwVC7eR/uMtqeVJ5gCswZxqBpevCsDa9fr5PWDb7pRF++ia25zNYXMfbogI9f/3r
HM577nN5ESjT0DNGohGdsbbfATFz
-----END CERTIFICATE-----
