Certificate:
    Data:
        Version: 1 (0x0)
        Serial Number: 7 (0x7)
        Signature Algorithm: sha256WithRSAEncryption
        Issuer: O=fusioninventory.org, OU=test certification authority, CN=test_ca/emailAddress=test@fusioninventory.org
        Validity
            Not Before: Dec 12 18:55:04 2011 GMT
            Not After : Dec 11 18:55:04 2013 GMT
        Subject: O=fusioninventory.org, OU=trusted test certificate, CN=localhost/emailAddress=test@fusioninventory.org
        Subject Public Key Info:
            Public Key Algorithm: rsaEncryption
                Public-Key: (2048 bit)
                Modulus:
                    00:b6:fb:e5:c7:2d:1a:28:a6:f2:94:c1:be:ac:f7:
                    a5:2f:63:e5:b0:db:58:3f:b7:b9:5b:4c:4d:5b:8e:
                    23:8a:b6:71:98:c1:fc:11:0b:6b:58:3e:81:a8:d0:
                    8d:89:ce:2f:6c:ff:8d:6c:04:b7:b8:ad:cf:b5:a4:
                    71:05:58:bc:9c:01:a5:13:36:06:29:d3:84:61:c1:
                    75:34:6e:fe:64:8d:67:83:31:61:05:06:00:c6:b6:
                    a0:67:11:85:dc:43:86:f0:61:c6:cc:c4:28:24:34:
                    5b:d4:ac:23:da:35:e2:11:fe:a4:ff:84:17:8c:5a:
                    29:28:7d:44:44:dc:72:08:4b:16:79:a1:8c:8e:24:
                    cc:dc:c4:cb:de:43:97:ac:47:b4:64:46:3c:2d:f9:
                    41:dc:14:96:54:27:c5:f5:ee:9f:29:d9:c1:3a:5c:
                    41:99:64:b9:72:4f:b2:7a:aa:65:3f:06:3c:dd:06:
                    67:06:ca:33:7a:63:8c:fc:d1:9f:55:58:8b:88:36:
                    ff:4b:95:21:cf:1e:b0:88:b6:0a:1f:29:1f:d1:90:
                    e4:0e:5c:6e:45:d6:2e:c3:37:a9:a5:cb:15:01:51:
                    3a:57:44:f3:b5:10:7e:99:4d:87:d2:3a:44:1a:83:
                    53:9e:57:c5:03:11:a2:9e:3a:72:d5:41:4b:85:55:
                    25:17
                Exponent: 65537 (0x10001)
    Signature Algorithm: sha256WithRSAEncryption
        11:37:b8:2b:61:c2:e0:e6:76:23:d6:9f:8d:61:5d:6d:d8:1f:
        73:d8:40:7c:25:25:e7:3e:1f:3d:04:e5:61:f5:6b:fe:c4:af:
        cc:8d:55:b2:73:4c:66:89:25:29:c1:44:d2:3c:2c:96:7a:d4:
        05:ee:ff:32:ca:a6:16:ee:9f:70:b7:d1:08:0d:8f:1e:71:7c:
        a6:0e:3d:dc:5a:08:8e:28:64:3f:4c:b2:e1:cd:5d:96:3d:ae:
        28:df:56:bc:a6:ce:1f:e7:d6:ef:ff:41:b3:8e:1e:1e:76:bb:
        e7:7e:12:f8:93:35:1a:93:41:cb:81:32:6a:d0:2c:87:b6:24:
        f8:b8:c2:a6:4d:0c:b2:f7:34:ec:9a:67:13:0b:4a:2a:12:bb:
        c2:d3:62:14:20:08:46:bf:da:68:5d:bf:4d:fb:19:f5:1e:ea:
        b0:a3:12:41:98:f2:f1:b5:f2:30:1b:17:9d:37:af:c2:83:08:
        9d:14:ef:7f:28:a0:f0:8f:ab:d7:02:bf:d7:2b:ab:7c:17:10:
        28:79:4e:98:01:d4:a1:bf:cf:cc:2e:84:66:74:10:23:1e:d7:
        31:83:11:21:96:37:76:46:04:95:1c:4c:b2:35:b0:ca:87:52:
        1d:72:fd:6c:4c:72:51:a9:fb:13:fb:69:87:55:be:6b:2e:fd:
        bc:0c:2c:69
-----BEGIN CERTIFICATE-----
MIIDczCCAlsCAQcwDQYJKoZIhvcNAQELBQAwgYAxHDAaBgNVBAoTE2Z1c2lvbmlu
dmVudG9yeS5vcmcxJTAjBgNVBAsTHHRlc3QgY2VydGlmaWNhdGlvbiBhdXRob3Jp
dHkxEDAOBgNVBAMUB3Rlc3RfY2ExJzAlBgkqhkiG9w0BCQEWGHRlc3RAZnVzaW9u
aW52ZW50b3J5Lm9yZzAeFw0xMTEyMTIxODU1MDRaFw0xMzEyMTExODU1MDRaMH4x
HDAaBgNVBAoTE2Z1c2lvbmludmVudG9yeS5vcmcxITAfBgNVBAsTGHRydXN0ZWQg
dGVzdCBjZXJ0aWZpY2F0ZTESMBAGA1UEAxMJbG9jYWxob3N0MScwJQYJKoZIhvcN
AQkBFhh0ZXN0QGZ1c2lvbmludmVudG9yeS5vcmcwggEiMA0GCSqGSIb3DQEBAQUA
A4IBDwAwggEKAoIBAQC2++XHLRoopvKUwb6s96UvY+Ww21g/t7lbTE1bjiOKtnGY
wfwRC2tYPoGo0I2Jzi9s/41sBLe4rc+1pHEFWLycAaUTNgYp04RhwXU0bv5kjWeD
MWEFBgDGtqBnEYXcQ4bwYcbMxCgkNFvUrCPaNeIR/qT/hBeMWikofURE3HIISxZ5
oYyOJMzcxMveQ5esR7RkRjwt+UHcFJZUJ8X17p8p2cE6XEGZZLlyT7J6qmU/Bjzd
BmcGyjN6Y4z80Z9VWIuINv9LlSHPHrCItgofKR/RkOQOXG5F1i7DN6mlyxUBUTpX
RPO1EH6ZTYfSOkQag1OeV8UDEaKeOnLVQUuFVSUXAgMBAAEwDQYJKoZIhvcNAQEL
BQADggEBABE3uCthwuDmdiPWn41hXW3YH3PYQHwlJec+Hz0E5WH1a/7Er8yNVbJz
TGaJJSnBRNI8LJZ61AXu/zLKphbun3C30QgNjx5xfKYOPdxaCI4oZD9MsuHNXZY9
rijfVrymzh/n1u//QbOOHh52u+d+EviTNRqTQcuBMmrQLIe2JPi4wqZNDLL3NOya
ZxMLSioSu8LTYhQgCEa/2mhdv037GfUe6rCjEkGY8vG18jAbF503r8KDCJ0U738o
oPCPq9cCv9crq3wXECh5TpgB1KG/z8wuhGZ0ECMe1zGDESGWN3ZGBJUcTLI1sMqH
Uh1y/WxMclGp+xP7aYdVvmsu/bwMLGk=
-----END CERTIFICATE-----
