Certificate:
    Data:
        Version: 1 (0x0)
        Serial Number: 3 (0x3)
    Signature Algorithm: md5WithRSAEncryption
        Issuer: O=fusioninventory.org, OU=test certification authority, CN=test_ca/emailAddress=test@fusioninventory.org
        Validity
            Not Before: Jul 17 21:29:24 2013 GMT
            Not After : Jul 15 21:29:24 2023 GMT
        Subject: O=fusioninventory.org, OU=trusted test certificate, CN=*.localdomain/emailAddress=test@fusioninventory.org
        Subject Public Key Info:
            Public Key Algorithm: rsaEncryption
                Public-Key: (2048 bit)
                Modulus:
                    00:d0:89:e1:b8:ce:ee:45:0d:08:34:00:ea:f8:7b:
                    83:40:1f:b4:11:0b:a4:4a:b0:97:dc:e0:0f:c7:bf:
                    2d:70:96:24:10:91:15:32:27:7c:c0:6d:ad:a7:63:
                    5d:f0:10:d1:15:58:88:02:b9:49:b5:2d:89:4b:d3:
                    12:6f:b5:cb:05:63:87:5c:8d:cc:0f:4d:b9:cf:7f:
                    f8:bb:b3:8b:2d:aa:2e:b9:c9:a9:eb:0d:76:46:f2:
                    e4:0a:24:d8:f7:6a:0d:9c:31:1b:c2:b2:4a:c9:f5:
                    69:7d:5a:f6:49:f6:56:27:23:94:e6:74:78:4b:87:
                    69:6f:e0:a6:2c:fd:33:d6:d5:c3:08:5d:45:08:a4:
                    6f:87:85:48:d8:9c:ed:5a:9a:00:92:c8:72:4a:be:
                    d0:81:25:df:d7:49:e3:1a:f8:c6:bd:96:9b:84:1d:
                    9a:32:a3:0f:03:39:da:6a:4d:13:c6:3f:51:99:b7:
                    eb:61:73:87:31:2d:00:3d:c7:14:1d:1a:0d:8c:46:
                    16:af:c4:e3:bf:46:60:c5:9f:86:4d:a6:75:43:ad:
                    db:64:68:2a:49:94:73:86:95:71:66:bd:51:3b:1b:
                    ba:5d:04:5f:4c:2c:f3:41:c7:14:c5:dd:18:a2:c3:
                    fa:14:2d:a7:b8:1c:ae:09:6f:36:6c:2c:a7:0a:e7:
                    a8:e3
                Exponent: 65537 (0x10001)
        X509v3 extensions:
            X509v3 Basic Constraints: 
                CA:FALSE
            X509v3 Subject Key Identifier: 
                35:FE:0F:BE:C0:63:9E:26:9E:67:72:03:17:99:20:7E:B0:2C:57:B9
    Signature Algorithm: md5WithRSAEncryption
         a0:a2:ba:74:1a:c4:9c:e1:f4:61:31:8f:75:cd:16:fc:5d:a8:
         b7:82:6e:0f:0a:6a:c7:96:e0:cd:80:1a:e0:40:3f:34:f0:d3:
         89:48:f4:25:1a:58:59:11:b8:52:2e:a3:84:c3:29:4c:98:16:
         0f:c5:fa:a0:3b:ca:45:b2:07:64:77:04:f9:65:f0:1e:4b:f0:
         62:44:09:6a:ec:24:4d:d1:0f:34:e8:5f:a6:35:98:44:de:9c:
         e4:b3:4c:15:09:4d:46:09:04:20:b4:20:1b:8d:79:56:58:c3:
         49:bf:ce:04:7f:66:7b:3f:5c:45:2c:30:08:f8:ee:9f:90:6c:
         14:03:00:a4:3c:c7:d5:6d:18:99:4d:57:09:d2:1b:a3:77:3a:
         15:dd:94:8f:ae:45:54:85:90:0e:02:6a:43:ab:71:26:16:e3:
         25:ea:74:99:d0:5b:9e:d4:b5:42:cb:b4:33:8e:eb:76:d6:71:
         29:ec:d6:df:57:74:a8:6c:b1:4b:51:b9:08:75:e8:b2:c3:07:
         a3:d9:33:61:a6:d7:67:17:97:0f:af:4e:d0:61:ad:0d:55:4d:
         8a:b0:cb:ee:9f:c1:4c:c4:42:5e:c5:5e:e9:0a:1f:e4:e6:fe:
         6d:dc:e3:f3:66:7b:65:36:ee:ef:73:bc:71:a8:e7:a1:8c:f8:
         59:f0:7c:1c
-----BEGIN CERTIFICATE-----
MIIDpjCCAo4CAQMwDQYJKoZIhvcNAQEEBQAwgYAxHDAaBgNVBAoTE2Z1c2lvbmlu
dmVudG9yeS5vcmcxJTAjBgNVBAsTHHRlc3QgY2VydGlmaWNhdGlvbiBhdXRob3Jp
dHkxEDAOBgNVBAMUB3Rlc3RfY2ExJzAlBgkqhkiG9w0BCQEWGHRlc3RAZnVzaW9u
aW52ZW50b3J5Lm9yZzAeFw0xMzA3MTcyMTI5MjRaFw0yMzA3MTUyMTI5MjRaMIGC
MRwwGgYDVQQKExNmdXNpb25pbnZlbnRvcnkub3JnMSEwHwYDVQQLExh0cnVzdGVk
IHRlc3QgY2VydGlmaWNhdGUxFjAUBgNVBAMUDSoubG9jYWxkb21haW4xJzAlBgkq
hkiG9w0BCQEWGHRlc3RAZnVzaW9uaW52ZW50b3J5Lm9yZzCCASIwDQYJKoZIhvcN
AQEBBQADggEPADCCAQoCggEBANCJ4bjO7kUNCDQA6vh7g0AftBELpEqwl9zgD8e/
LXCWJBCRFTInfMBtradjXfAQ0RVYiAK5SbUtiUvTEm+1ywVjh1yNzA9Nuc9/+Luz
iy2qLrnJqesNdkby5Aok2PdqDZwxG8KySsn1aX1a9kn2VicjlOZ0eEuHaW/gpiz9
M9bVwwhdRQikb4eFSNic7VqaAJLIckq+0IEl39dJ4xr4xr2Wm4QdmjKjDwM52mpN
E8Y/UZm362FzhzEtAD3HFB0aDYxGFq/E479GYMWfhk2mdUOt22RoKkmUc4aVcWa9
UTsbul0EX0ws80HHFMXdGKLD+hQtp7gcrglvNmwspwrnqOMCAwEAAaMsMCowCQYD
VR0TBAIwADAdBgNVHQ4EFgQUNf4PvsBjniaeZ3IDF5kgfrAsV7kwDQYJKoZIhvcN
AQEEBQADggEBAKCiunQaxJzh9GExj3XNFvxdqLeCbg8KaseW4M2AGuBAPzTw04lI
9CUaWFkRuFIuo4TDKUyYFg/F+qA7ykWyB2R3BPll8B5L8GJECWrsJE3RDzToX6Y1
mETenOSzTBUJTUYJBCC0IBuNeVZYw0m/zgR/Zns/XEUsMAj47p+QbBQDAKQ8x9Vt
GJlNVwnSG6N3OhXdlI+uRVSFkA4CakOrcSYW4yXqdJnQW57UtULLtDOO63bWcSns
1t9XdKhssUtRuQh16LLDB6PZM2Gm12cXlw+vTtBhrQ1VTYqwy+6fwUzEQl7FXukK
H+Tm/m3c4/Nme2U27u9zvHGo56GM+FnwfBw=
-----END CERTIFICATE-----
