Certificate:
    Data:
        Version: 1 (0x0)
        Serial Number: 4 (0x4)
        Signature Algorithm: md5WithRSAEncryption
        Issuer: O=fusioninventory.org, OU=test certification authority, CN=test_ca/emailAddress=test@fusioninventory.org
        Validity
            Not Before: Jun 27 15:52:50 2011 GMT
            Not After : Jun 26 15:52:50 2013 GMT
        Subject: O=fusioninventory.org, OU=trusted test certificate, CN=*.localdomain/emailAddress=test@fusioninventory.org
        Subject Public Key Info:
            Public Key Algorithm: rsaEncryption
                Public-Key: (2048 bit)
                Modulus:
                    00:9c:fa:d5:01:b0:b4:9b:52:ee:67:cd:10:7d:6a:
                    cb:de:1b:a9:bf:da:67:3f:76:a0:ca:8b:16:f0:43:
                    24:0b:ef:43:16:b9:45:e7:61:9a:04:6c:62:01:72:
                    09:64:a4:7d:b9:93:b1:58:e8:fc:5d:c3:d1:a1:2f:
                    f9:54:3f:3a:ea:1c:15:eb:fd:32:a3:bf:d8:13:06:
                    77:52:31:9b:ad:9e:a0:fe:e8:fc:b6:06:e6:d9:7a:
                    e3:d0:7b:c0:a1:bb:2b:6f:74:6e:4f:a1:bc:c5:ea:
                    56:8f:7d:b8:e6:6b:91:93:19:2e:94:35:92:39:1f:
                    6a:c3:ec:81:f1:e0:c9:9e:f3:a0:72:13:c9:e4:2c:
                    2f:de:bb:f6:32:4a:fb:f7:bc:45:13:5b:54:67:35:
                    0d:fd:b3:0f:99:ef:44:ce:d7:28:ee:45:af:75:b2:
                    df:95:c5:4d:ed:e7:8e:e2:cc:48:c2:b7:fe:91:03:
                    37:c4:31:8d:b3:dd:48:bc:b2:79:c0:bf:97:f3:b0:
                    26:fd:c0:7c:a8:b9:09:a3:44:e6:91:40:e6:35:79:
                    42:06:75:e8:ef:c1:43:60:e1:d6:8a:b6:99:31:9f:
                    8c:69:61:89:2c:b1:55:90:fe:ea:42:ee:06:57:99:
                    7e:9e:10:b6:ad:5e:c3:60:9f:62:4c:ce:38:50:56:
                    bb:2d
                Exponent: 65537 (0x10001)
    Signature Algorithm: md5WithRSAEncryption
        c1:d2:3c:5b:4e:12:89:e4:1c:46:6c:17:a7:52:b3:14:85:03:
        11:1f:82:34:29:38:37:73:71:84:f7:71:2d:f1:1f:d0:38:28:
        10:07:94:11:6c:fa:aa:ee:a7:78:85:ad:90:c8:54:33:ef:f7:
        ff:31:23:bd:cc:05:50:cb:fe:88:79:74:03:f2:00:09:c3:88:
        00:52:10:34:df:ae:bb:c5:d0:74:85:ae:32:7b:51:0d:42:1f:
        6a:34:06:d8:ca:13:38:57:69:44:78:52:59:67:2c:c3:f7:5b:
        51:4f:36:26:71:63:dd:12:71:e9:50:d4:32:71:59:90:e7:91:
        ce:a8:21:bf:0a:ca:31:2a:45:bf:ab:7b:a3:8b:0d:9c:da:93:
        09:53:3a:79:c4:7c:50:de:e3:a5:6a:b1:9d:2b:d3:59:58:61:
        b7:96:0f:66:a6:dc:f4:fa:72:ba:b2:05:d2:04:ee:0f:b8:f4:
        0c:63:da:16:a2:f1:af:f3:d5:89:b0:72:0a:54:0b:8f:37:41:
        77:7b:04:21:fd:37:62:4e:df:41:c1:ac:35:b5:67:79:07:f1:
        81:45:ba:3e:d2:ba:bf:90:77:b3:ca:ab:a0:be:cc:e1:54:2a:
        b5:6e:ce:be:e2:64:89:7c:e3:ef:65:c3:ac:c5:64:52:7f:dc:
        13:68:5c:13
-----BEGIN CERTIFICATE-----
MIIDeDCCAmACAQQwDQYJKoZIhvcNAQEEBQAwgYAxHDAaBgNVBAoTE2Z1c2lvbmlu
dmVudG9yeS5vcmcxJTAjBgNVBAsTHHRlc3QgY2VydGlmaWNhdGlvbiBhdXRob3Jp
dHkxEDAOBgNVBAMUB3Rlc3RfY2ExJzAlBgkqhkiG9w0BCQEWGHRlc3RAZnVzaW9u
aW52ZW50b3J5Lm9yZzAeFw0xMTA2MjcxNTUyNTBaFw0xMzA2MjYxNTUyNTBaMIGC
MRwwGgYDVQQKExNmdXNpb25pbnZlbnRvcnkub3JnMSEwHwYDVQQLExh0cnVzdGVk
IHRlc3QgY2VydGlmaWNhdGUxFjAUBgNVBAMUDSoubG9jYWxkb21haW4xJzAlBgkq
hkiG9w0BCQEWGHRlc3RAZnVzaW9uaW52ZW50b3J5Lm9yZzCCASIwDQYJKoZIhvcN
AQEBBQADggEPADCCAQoCggEBAJz61QGwtJtS7mfNEH1qy94bqb/aZz92oMqLFvBD
JAvvQxa5RedhmgRsYgFyCWSkfbmTsVjo/F3D0aEv+VQ/OuocFev9MqO/2BMGd1Ix
m62eoP7o/LYG5tl649B7wKG7K290bk+hvMXqVo99uOZrkZMZLpQ1kjkfasPsgfHg
yZ7zoHITyeQsL9679jJK+/e8RRNbVGc1Df2zD5nvRM7XKO5Fr3Wy35XFTe3njuLM
SMK3/pEDN8QxjbPdSLyyecC/l/OwJv3AfKi5CaNE5pFA5jV5QgZ16O/BQ2Dh1oq2
mTGfjGlhiSyxVZD+6kLuBleZfp4Qtq1ew2CfYkzOOFBWuy0CAwEAATANBgkqhkiG
9w0BAQQFAAOCAQEAwdI8W04SieQcRmwXp1KzFIUDER+CNCk4N3NxhPdxLfEf0Dgo
EAeUEWz6qu6neIWtkMhUM+/3/zEjvcwFUMv+iHl0A/IACcOIAFIQNN+uu8XQdIWu
MntRDUIfajQG2MoTOFdpRHhSWWcsw/dbUU82JnFj3RJx6VDUMnFZkOeRzqghvwrK
MSpFv6t7o4sNnNqTCVM6ecR8UN7jpWqxnSvTWVhht5YPZqbc9PpyurIF0gTuD7j0
DGPaFqLxr/PVibByClQLjzdBd3sEIf03Yk7fQcGsNbVneQfxgUW6PtK6v5B3s8qr
oL7M4VQqtW7OvuJkiXzj72XDrMVkUn/cE2hcEw==
-----END CERTIFICATE-----
