Certificate:
    Data:
        Version: 1 (0x0)
        Serial Number: 4099 (0x1003)
    Signature Algorithm: sha1WithRSAEncryption
        Issuer: O=fusioninventory.org, OU=test certification authority, CN=test_ca/emailAddress=test@fusioninventory.org
        Validity
            Not Before: Jun 27 09:25:35 2015 GMT
            Not After : Jun 24 09:25:35 2025 GMT
        Subject: O=fusioninventory.org, OU=wrong trusted test certificate, CN=test.fusioninventory.org/emailAddress=test@fusioninventory.org
        Subject Public Key Info:
            Public Key Algorithm: rsaEncryption
                Public-Key: (2048 bit)
                Modulus:
                    00:dc:a1:26:c5:7d:6d:59:95:12:3a:76:84:95:df:
                    9a:b6:9f:e6:8f:a4:7e:87:e7:b4:0c:e6:dd:9b:11:
                    59:fb:ed:00:c1:ae:e8:ce:25:2a:30:16:9d:2a:ee:
                    ce:72:5e:30:59:df:56:e8:1b:7c:c9:97:f7:6e:e8:
                    f7:43:c8:a4:f1:5f:ea:9d:d6:e6:a6:c8:77:c7:49:
                    5c:59:14:ff:14:ec:7b:63:66:90:d6:11:61:53:b0:
                    72:67:43:e2:17:e6:41:94:bd:ba:f5:7f:96:29:bb:
                    14:a8:7b:38:f9:86:48:7c:e5:a6:04:b2:a3:45:8a:
                    45:13:a9:28:22:00:10:3f:be:58:73:90:c6:36:22:
                    1b:72:48:e7:f5:fc:a0:86:48:cd:09:db:7f:ca:e8:
                    80:6f:ef:6a:7f:c5:63:a8:7e:83:10:da:03:fc:cf:
                    e8:11:3d:c0:a9:fd:bd:1c:1b:a0:99:6c:8c:0a:32:
                    a0:c6:9d:c9:a7:38:83:63:5b:a4:d4:21:3d:5d:de:
                    da:88:11:3b:5d:6f:c3:72:ec:6a:e4:aa:c0:e0:c5:
                    3e:45:2d:76:09:c2:14:77:4e:b4:75:19:3b:e5:38:
                    3e:11:94:9c:ce:f9:7b:a2:1c:6f:a3:85:09:de:b7:
                    8a:ee:d6:91:e8:15:b1:29:88:38:f6:54:07:78:5a:
                    14:a3
                Exponent: 65537 (0x10001)
        X509v3 extensions:
            X509v3 Basic Constraints: 
                CA:FALSE
            X509v3 Subject Key Identifier: 
                AF:03:9E:CF:1E:85:DC:02:68:22:08:FD:AF:C6:A5:D3:BE:E7:19:82
    Signature Algorithm: sha1WithRSAEncryption
         8d:ee:1c:41:e7:03:5f:02:11:bd:43:32:5e:20:5e:1f:52:16:
         36:41:21:8e:9b:82:81:77:7d:47:74:3d:39:2e:a2:68:1d:ab:
         56:65:0b:ef:99:1b:35:6e:3c:81:55:8e:3c:fd:30:9d:65:3d:
         bd:f0:ba:4b:45:57:af:75:19:49:75:a1:3f:a1:df:50:5a:45:
         8d:e9:14:aa:12:69:d4:27:5d:08:ab:2d:6b:a8:fd:56:7c:0b:
         d8:fe:ca:aa:0d:30:4b:2b:b7:5b:c8:5b:9f:07:2f:66:41:7c:
         ae:55:5c:6c:4f:a4:a2:ff:3f:0f:4b:81:2c:82:dd:93:89:48:
         c9:46:91:13:04:6c:09:b4:b0:c0:f4:43:51:40:6e:28:68:f2:
         d3:b6:a3:85:fb:8d:b2:13:91:7a:cf:70:02:66:da:39:c2:cd:
         c2:28:cb:e1:93:1d:da:86:d4:a1:15:0f:9d:00:d8:f3:40:02:
         60:c4:e7:a0:17:86:ed:03:df:c2:2e:1a:b7:ac:da:c8:65:f5:
         11:65:60:04:fa:27:2c:68:4d:be:53:12:a8:87:0a:86:f4:4d:
         a5:93:96:52:30:be:a6:64:45:c6:d1:68:57:8a:e2:ac:59:e1:
         09:6d:f2:d1:a4:ed:9e:48:ec:02:0f:c2:61:16:2e:bc:49:4b:
         0b:41:bf:cc
-----BEGIN CERTIFICATE-----
MIIDuDCCAqACAhADMA0GCSqGSIb3DQEBBQUAMIGAMRwwGgYDVQQKExNmdXNpb25p
bnZlbnRvcnkub3JnMSUwIwYDVQQLExx0ZXN0IGNlcnRpZmljYXRpb24gYXV0aG9y
aXR5MRAwDgYDVQQDFAd0ZXN0X2NhMScwJQYJKoZIhvcNAQkBFhh0ZXN0QGZ1c2lv
bmludmVudG9yeS5vcmcwHhcNMTUwNjI3MDkyNTM1WhcNMjUwNjI0MDkyNTM1WjCB
kzEcMBoGA1UEChMTZnVzaW9uaW52ZW50b3J5Lm9yZzEnMCUGA1UECxMed3Jvbmcg
dHJ1c3RlZCB0ZXN0IGNlcnRpZmljYXRlMSEwHwYDVQQDExh0ZXN0LmZ1c2lvbmlu
dmVudG9yeS5vcmcxJzAlBgkqhkiG9w0BCQEWGHRlc3RAZnVzaW9uaW52ZW50b3J5
Lm9yZzCCASIwDQYJKoZIhvcNAQEBBQADggEPADCCAQoCggEBANyhJsV9bVmVEjp2
hJXfmraf5o+kfofntAzm3ZsRWfvtAMGu6M4lKjAWnSruznJeMFnfVugbfMmX927o
90PIpPFf6p3W5qbId8dJXFkU/xTse2NmkNYRYVOwcmdD4hfmQZS9uvV/lim7FKh7
OPmGSHzlpgSyo0WKRROpKCIAED++WHOQxjYiG3JI5/X8oIZIzQnbf8rogG/van/F
Y6h+gxDaA/zP6BE9wKn9vRwboJlsjAoyoMadyac4g2NbpNQhPV3e2ogRO11vw3Ls
auSqwODFPkUtdgnCFHdOtHUZO+U4PhGUnM75e6Icb6OFCd63iu7WkegVsSmIOPZU
B3haFKMCAwEAAaMsMCowCQYDVR0TBAIwADAdBgNVHQ4EFgQUrwOezx6F3AJoIgj9
r8al077nGYIwDQYJKoZIhvcNAQEFBQADggEBAI3uHEHnA18CEb1DMl4gXh9SFjZB
IY6bgoF3fUd0PTkuomgdq1ZlC++ZGzVuPIFVjjz9MJ1lPb3wuktFV691GUl1oT+h
31BaRY3pFKoSadQnXQirLWuo/VZ8C9j+yqoNMEsrt1vIW58HL2ZBfK5VXGxPpKL/
Pw9LgSyC3ZOJSMlGkRMEbAm0sMD0Q1FAbiho8tO2o4X7jbITkXrPcAJm2jnCzcIo
y+GTHdqG1KEVD50A2PNAAmDE56AXhu0D38IuGres2shl9RFlYAT6JyxoTb5TEqiH
Cob0TaWTllIwvqZkRcbRaFeK4qxZ4Qlt8tGk7Z5I7AIPwmEWLrxJSwtBv8w=
-----END CERTIFICATE-----
