Certificate:
    Data:
        Version: 3 (0x2)
        Serial Number: 4098 (0x1002)
        Signature Algorithm: sha256WithRSAEncryption
        Issuer: O=fusioninventory.org, OU=test certification authority, CN=test_ca/emailAddress=test@fusioninventory.org
        Validity
            Not Before: Nov 26 09:49:47 2020 GMT
            Not After : Nov 24 09:49:47 2030 GMT
        Subject: O=fusioninventory.org, OU=wrong trusted test certificate, CN=test.fusioninventory.org/emailAddress=test@fusioninventory.org
        Subject Public Key Info:
            Public Key Algorithm: rsaEncryption
                RSA Public-Key: (2048 bit)
                Modulus:
                    00:9c:b8:15:57:a7:8a:00:7e:0e:e4:eb:02:6c:c4:
                    12:e6:73:3a:96:cd:ea:ba:f7:cf:ba:c1:6e:25:52:
                    3f:e7:ae:e2:43:05:0b:15:5c:a6:23:ae:21:96:b0:
                    bc:4b:e2:63:72:8b:4f:bd:06:77:4d:08:b2:f6:69:
                    1f:b9:58:8e:bc:90:8a:8d:11:48:14:12:77:39:6e:
                    f4:30:a3:7e:0c:f3:f3:92:7c:58:78:e0:fb:4e:0e:
                    62:99:57:fd:16:7d:0d:52:8d:1c:4a:91:03:52:21:
                    00:5b:f2:28:88:e9:1d:6f:45:8f:05:69:ef:af:b1:
                    a9:aa:b8:b3:fb:d2:75:df:dd:47:e6:a0:a0:c3:ab:
                    63:ac:bf:c0:74:6f:ac:6c:d8:68:22:13:22:a2:6b:
                    cc:7e:d0:70:c4:56:59:65:5f:b8:1b:21:2e:30:d0:
                    f1:b2:79:b4:f8:e6:d7:40:66:e9:81:7e:e2:e4:49:
                    b2:3c:77:48:1f:92:7a:8e:e6:fa:c7:af:8c:2b:a8:
                    78:e4:8c:a2:8d:d0:29:95:2f:0b:33:c9:6d:02:fd:
                    ee:86:d3:e1:dc:90:83:5f:3e:12:fd:0a:8b:cc:61:
                    05:40:02:fb:15:cd:24:41:7f:58:da:5c:0e:cb:19:
                    86:8a:37:a6:f6:1d:bd:5e:91:39:aa:43:e2:39:21:
                    df:43
                Exponent: 65537 (0x10001)
        X509v3 extensions:
            X509v3 Basic Constraints: 
                CA:FALSE
            X509v3 Subject Key Identifier: 
                53:57:82:40:B9:80:EF:62:C0:E4:1D:1D:2E:CC:A6:B6:20:69:8B:78
    Signature Algorithm: sha256WithRSAEncryption
         21:31:8f:09:62:13:ea:52:d7:0a:23:8b:5d:ee:8e:0d:ae:62:
         91:32:6c:52:0e:ea:ea:12:08:00:cd:46:af:86:8d:43:6b:e7:
         03:85:af:8e:07:bf:10:41:3b:48:a4:05:d7:a0:82:c7:d8:7b:
         1d:b9:b4:d3:66:83:77:04:46:42:01:df:19:bc:57:57:97:6d:
         dd:cf:a5:30:6e:56:65:83:a1:03:5c:6a:d8:ef:59:91:96:75:
         a7:42:62:e7:28:e2:a6:d7:a8:52:ed:8a:ea:45:b8:36:fd:bd:
         12:88:bc:c2:8f:34:21:4f:08:2c:82:86:0d:57:74:aa:6e:70:
         0f:7e:b2:f2:10:3c:50:b6:7c:b6:19:a5:74:56:56:76:73:01:
         23:d1:f4:44:d8:09:66:43:df:1e:1b:fb:f9:45:c5:6b:9d:f8:
         a1:e5:34:2a:9e:d2:0a:47:c6:88:f2:eb:b1:14:ff:bf:26:5f:
         1a:01:92:2b:8e:e9:f7:88:7e:6b:f6:2b:f8:8d:1d:95:08:62:
         4f:03:3a:92:fd:3d:b0:20:03:67:c5:c1:fa:8c:9f:51:ff:58:
         31:ec:8f:e8:9b:e5:82:ea:07:69:ac:6e:f8:76:f7:00:56:d7:
         34:dd:ac:ab:7e:eb:8c:e1:a4:2d:ff:d0:2c:3d:b4:12:14:bd:
         33:5a:7e:36
-----BEGIN CERTIFICATE-----
MIIDvTCCAqWgAwIBAgICEAIwDQYJKoZIhvcNAQELBQAwgYAxHDAaBgNVBAoTE2Z1
c2lvbmludmVudG9yeS5vcmcxJTAjBgNVBAsTHHRlc3QgY2VydGlmaWNhdGlvbiBh
dXRob3JpdHkxEDAOBgNVBAMUB3Rlc3RfY2ExJzAlBgkqhkiG9w0BCQEWGHRlc3RA
ZnVzaW9uaW52ZW50b3J5Lm9yZzAeFw0yMDExMjYwOTQ5NDdaFw0zMDExMjQwOTQ5
NDdaMIGTMRwwGgYDVQQKDBNmdXNpb25pbnZlbnRvcnkub3JnMScwJQYDVQQLDB53
cm9uZyB0cnVzdGVkIHRlc3QgY2VydGlmaWNhdGUxITAfBgNVBAMMGHRlc3QuZnVz
aW9uaW52ZW50b3J5Lm9yZzEnMCUGCSqGSIb3DQEJARYYdGVzdEBmdXNpb25pbnZl
bnRvcnkub3JnMIIBIjANBgkqhkiG9w0BAQEFAAOCAQ8AMIIBCgKCAQEAnLgVV6eK
AH4O5OsCbMQS5nM6ls3quvfPusFuJVI/567iQwULFVymI64hlrC8S+JjcotPvQZ3
TQiy9mkfuViOvJCKjRFIFBJ3OW70MKN+DPPzknxYeOD7Tg5imVf9Fn0NUo0cSpED
UiEAW/IoiOkdb0WPBWnvr7Gpqriz+9J1391H5qCgw6tjrL/AdG+sbNhoIhMiomvM
ftBwxFZZZV+4GyEuMNDxsnm0+ObXQGbpgX7i5EmyPHdIH5J6jub6x6+MK6h45Iyi
jdAplS8LM8ltAv3uhtPh3JCDXz4S/QqLzGEFQAL7Fc0kQX9Y2lwOyxmGijem9h29
XpE5qkPiOSHfQwIDAQABoywwKjAJBgNVHRMEAjAAMB0GA1UdDgQWBBRTV4JAuYDv
YsDkHR0uzKa2IGmLeDANBgkqhkiG9w0BAQsFAAOCAQEAITGPCWIT6lLXCiOLXe6O
Da5ikTJsUg7q6hIIAM1Gr4aNQ2vnA4Wvjge/EEE7SKQF16CCx9h7Hbm002aDdwRG
QgHfGbxXV5dt3c+lMG5WZYOhA1xq2O9ZkZZ1p0Ji5yjipteoUu2K6kW4Nv29Eoi8
wo80IU8ILIKGDVd0qm5wD36y8hA8ULZ8thmldFZWdnMBI9H0RNgJZkPfHhv7+UXF
a534oeU0Kp7SCkfGiPLrsRT/vyZfGgGSK47p94h+a/Yr+I0dlQhiTwM6kv09sCAD
Z8XB+oyfUf9YMeyP6JvlguoHaaxu+Hb3AFbXNN2sq37rjOGkLf/QLD20EhS9M1p+
Ng==
-----END CERTIFICATE-----
