Certificate:
    Data:
        Version: 1 (0x0)
        Serial Number: 3 (0x3)
        Signature Algorithm: md5WithRSAEncryption
        Issuer: O=fusioninventory.org, OU=test certification authority, CN=test_ca/emailAddress=test@fusioninventory.org
        Validity
            Not Before: Jun 26 12:33:13 2011 GMT
            Not After : Jun 25 12:33:13 2013 GMT
        Subject: O=fusioninventory.org, OU=wrong trusted test certificate, CN=test.fusioninventory.org/emailAddress=test@fusioninventory.org
        Subject Public Key Info:
            Public Key Algorithm: rsaEncryption
                Public-Key: (2048 bit)
                Modulus:
                    00:c6:41:57:26:32:68:49:67:6a:0d:91:14:c6:3e:
                    72:39:08:c9:9e:87:8e:76:e9:6b:a9:27:22:a3:fd:
                    bd:72:2b:54:8d:94:b6:9f:c2:dc:95:63:8f:b1:ed:
                    18:74:6b:cb:d3:d2:34:04:18:15:56:f5:84:44:82:
                    d9:61:57:57:9f:0e:f2:6c:ee:e3:85:96:ff:47:b2:
                    ae:0c:13:a8:e5:65:15:89:44:1d:b7:f4:2b:dc:ae:
                    01:c2:71:2e:92:75:11:41:f9:ff:52:e8:3e:e0:1e:
                    bb:3d:57:d3:47:9b:e1:1f:16:de:97:07:89:05:6c:
                    77:09:98:6b:82:ee:ee:aa:9e:45:c2:f5:3e:10:64:
                    86:09:62:31:ad:19:a0:14:06:3b:d6:a7:60:bd:20:
                    47:f6:b7:8d:7e:ec:8b:16:eb:26:29:3f:c3:b4:44:
                    e2:7a:20:e3:a8:fa:da:91:cf:50:3c:ae:10:42:a5:
                    09:36:f1:34:9f:30:00:fa:9e:c9:33:f7:e4:d1:89:
                    0e:d1:f1:eb:de:b0:2a:5e:64:5a:a9:36:f4:82:42:
                    1d:95:d7:2c:b9:a3:a1:d0:30:cf:eb:21:25:e8:1a:
                    fb:96:9c:38:d3:9d:9f:04:6a:50:24:10:f4:ad:0a:
                    de:ba:6e:2b:bd:ca:09:6b:e5:51:d2:dd:03:11:d6:
                    21:5b
                Exponent: 65537 (0x10001)
    Signature Algorithm: md5WithRSAEncryption
        a5:45:0a:7d:34:26:3f:87:ab:ed:6b:f0:c9:14:38:06:b5:85:
        11:e5:00:75:81:82:22:00:68:55:1a:3a:76:cc:9a:8e:6b:96:
        f9:e4:ac:b2:53:55:97:29:35:09:e1:fe:1b:05:bd:60:d3:d4:
        02:18:3f:da:d6:d1:61:8a:f0:d5:db:12:a3:a9:59:eb:7d:fc:
        6c:62:77:4a:49:61:f2:96:a0:a1:86:de:89:f7:35:1f:a4:3b:
        3f:c1:cb:19:7b:a3:25:cd:0c:ee:45:18:58:11:ce:e0:30:9d:
        f9:60:f0:45:6a:c7:5f:e1:da:00:4e:68:e3:f8:87:51:ac:df:
        df:07:dd:8e:d6:86:84:84:b8:e9:c1:f9:f6:43:cb:7a:b3:2e:
        8a:03:50:f9:0c:16:1c:24:86:9c:f9:f7:96:c5:82:04:82:5a:
        6f:3d:4f:52:30:98:d1:d3:e5:aa:96:a4:fd:b5:9b:84:6b:20:
        0e:58:1d:a1:a1:1f:5a:e7:c0:58:a5:f3:5a:ea:26:71:fd:ef:
        a4:35:74:ea:c4:a7:9d:b2:82:ba:b5:90:93:8c:0f:f6:f1:d8:
        13:1d:c3:ac:0c:95:67:85:8c:9a:ec:02:62:e2:8a:df:cf:4b:
        a0:9e:d2:fd:28:41:fe:e3:f5:bb:46:24:1d:7d:dc:0a:9e:f2:
        40:31:12:3b
-----BEGIN CERTIFICATE-----
MIIDiTCCAnECAQMwDQYJKoZIhvcNAQEEBQAwgYAxHDAaBgNVBAoTE2Z1c2lvbmlu
dmVudG9yeS5vcmcxJTAjBgNVBAsTHHRlc3QgY2VydGlmaWNhdGlvbiBhdXRob3Jp
dHkxEDAOBgNVBAMUB3Rlc3RfY2ExJzAlBgkqhkiG9w0BCQEWGHRlc3RAZnVzaW9u
aW52ZW50b3J5Lm9yZzAeFw0xMTA2MjYxMjMzMTNaFw0xMzA2MjUxMjMzMTNaMIGT
MRwwGgYDVQQKExNmdXNpb25pbnZlbnRvcnkub3JnMScwJQYDVQQLEx53cm9uZyB0
cnVzdGVkIHRlc3QgY2VydGlmaWNhdGUxITAfBgNVBAMTGHRlc3QuZnVzaW9uaW52
ZW50b3J5Lm9yZzEnMCUGCSqGSIb3DQEJARYYdGVzdEBmdXNpb25pbnZlbnRvcnku
b3JnMIIBIjANBgkqhkiG9w0BAQEFAAOCAQ8AMIIBCgKCAQEAxkFXJjJoSWdqDZEU
xj5yOQjJnoeOdulrqScio/29citUjZS2n8LclWOPse0YdGvL09I0BBgVVvWERILZ
YVdXnw7ybO7jhZb/R7KuDBOo5WUViUQdt/Qr3K4BwnEuknURQfn/Uug+4B67PVfT
R5vhHxbelweJBWx3CZhrgu7uqp5FwvU+EGSGCWIxrRmgFAY71qdgvSBH9reNfuyL
FusmKT/DtETieiDjqPrakc9QPK4QQqUJNvE0nzAA+p7JM/fk0YkO0fHr3rAqXmRa
qTb0gkIdldcsuaOh0DDP6yEl6Br7lpw4052fBGpQJBD0rQreum4rvcoJa+VR0t0D
EdYhWwIDAQABMA0GCSqGSIb3DQEBBAUAA4IBAQClRQp9NCY/h6vta/DJFDgGtYUR
5QB1gYIiAGhVGjp2zJqOa5b55KyyU1WXKTUJ4f4bBb1g09QCGD/a1tFhivDV2xKj
qVnrffxsYndKSWHylqChht6J9zUfpDs/wcsZe6MlzQzuRRhYEc7gMJ35YPBFasdf
4doATmjj+IdRrN/fB92O1oaEhLjpwfn2Q8t6sy6KA1D5DBYcJIac+feWxYIEglpv
PU9SMJjR0+WqlqT9tZuEayAOWB2hoR9a58BYpfNa6iZx/e+kNXTqxKedsoK6tZCT
jA/28dgTHcOsDJVnhYya7AJi4orfz0ugntL9KEH+4/W7RiQdfdwKnvJAMRI7
-----END CERTIFICATE-----
